

Microchip MPLAB XC8 Assembler V2.40 build 20220703182018 
                                                                                               Mon Oct 24 19:54:19 2022

Microchip MPLAB XC8 C Compiler v2.40 (Free license) build 20220703182018 Og1 
     1                           	processor	16F887
     2                           	pagewidth 120
     3                           	opt	flic
     4                           	psect	cinit,global,class=CODE,merge=1,delta=2
     5                           	psect	bssBANK0,global,class=BANK0,space=1,delta=1,noexec
     6                           	psect	cstackCOMMON,global,class=COMMON,space=1,delta=1,noexec
     7                           	psect	cstackBANK0,global,class=BANK0,space=1,delta=1,noexec
     8                           	psect	maintext,global,class=CODE,split=1,delta=2
     9                           	psect	text1,local,class=CODE,merge=1,delta=2
    10                           	psect	text2,local,class=CODE,merge=1,delta=2
    11                           	psect	text3,local,class=CODE,merge=1,delta=2
    12                           	psect	text4,local,class=CODE,merge=1,delta=2
    13                           	psect	text5,local,class=CODE,merge=1,delta=2,group=1
    14                           	psect	text6,local,class=CODE,merge=1,delta=2,group=1
    15                           	psect	text7,local,class=CODE,merge=1,delta=2,group=1
    16                           	psect	text8,local,class=CODE,merge=1,delta=2,group=1
    17                           	psect	text9,local,class=CODE,merge=1,delta=2,group=1
    18                           	psect	text10,local,class=CODE,merge=1,delta=2
    19                           	psect	intentry,global,class=CODE,delta=2
    20                           	psect	idloc,global,abs,ovrld,class=IDLOC,space=5,delta=2,noexec
    21                           	psect	config,global,abs,ovrld,class=CONFIG,space=4,delta=2,noexec
    22                           	dabs	1,0x7E,2
    23     0000                     
    24                           ; Version 2.40
    25                           ; Generated 17/11/2021 GMT
    26                           ; 
    27                           ; Copyright © 2021, Microchip Technology Inc. and its subsidiaries ("Microchip")
    28                           ; All rights reserved.
    29                           ; 
    30                           ; This software is developed by Microchip Technology Inc. and its subsidiaries ("Microch
      +                          ip").
    31                           ; 
    32                           ; Redistribution and use in source and binary forms, with or without modification, are
    33                           ; permitted provided that the following conditions are met:
    34                           ; 
    35                           ;     1. Redistributions of source code must retain the above copyright notice, this lis
      +                          t of
    36                           ;        conditions and the following disclaimer.
    37                           ; 
    38                           ;     2. Redistributions in binary form must reproduce the above copyright notice, this 
      +                          list
    39                           ;        of conditions and the following disclaimer in the documentation and/or other
    40                           ;        materials provided with the distribution. Publication is not required when
    41                           ;        this file is used in an embedded application.
    42                           ; 
    43                           ;     3. Microchip's name may not be used to endorse or promote products derived from th
      +                          is
    44                           ;        software without specific prior written permission.
    45                           ; 
    46                           ; THIS SOFTWARE IS PROVIDED BY MICROCHIP "AS IS" AND ANY EXPRESS OR IMPLIED WARRANTIES,
    47                           ; INCLUDING, BUT NOT LIMITED TO, THE IMPLIED WARRANTIES OF MERCHANTABILITY AND FITNESS F
      +                          OR
    48                           ; PURPOSE ARE DISCLAIMED.  IN NO EVENT SHALL MICROCHIP BE LIABLE FOR ANY DIRECT, INDIREC
      +                          T,
    49                           ; INCIDENTAL, SPECIAL, EXEMPLARY, OR CONSEQUENTIAL DAMAGES (INCLUDING BUT NOT LIMITED TO
    50                           ; PROCUREMENT OF SUBSTITUTE GOODS OR SERVICES; LOSS OF USE, DATA OR PROFITS; OR BUSINESS
    51                           ; INTERRUPTION) HOWSOEVER CAUSED AND ON ANY THEORY OF LIABILITY, WHETHER IN CONTRACT, ST
      +                          RICT
    52                           ; LIABILITY, OR TORT (INCLUDING NEGLIGENCE OR OTHERWISE) ARISING IN ANY WAY OUT OF THE U
      +                          SE OF
    53                           ; THIS SOFTWARE, EVEN IF ADVISED OF THE POSSIBILITY OF SUCH DAMAGE.
    54                           ; 
    55                           ; 
    56                           ; Code-generator required, PIC16F887 Definitions
    57                           ; 
    58                           ; SFR Addresses
    59     0000                     	;# 
    60     0001                     	;# 
    61     0002                     	;# 
    62     0003                     	;# 
    63     0004                     	;# 
    64     0005                     	;# 
    65     0006                     	;# 
    66     0007                     	;# 
    67     0008                     	;# 
    68     0009                     	;# 
    69     000A                     	;# 
    70     000B                     	;# 
    71     000C                     	;# 
    72     000D                     	;# 
    73     000E                     	;# 
    74     000E                     	;# 
    75     000F                     	;# 
    76     0010                     	;# 
    77     0011                     	;# 
    78     0012                     	;# 
    79     0013                     	;# 
    80     0014                     	;# 
    81     0015                     	;# 
    82     0015                     	;# 
    83     0016                     	;# 
    84     0017                     	;# 
    85     0018                     	;# 
    86     0019                     	;# 
    87     001A                     	;# 
    88     001B                     	;# 
    89     001B                     	;# 
    90     001C                     	;# 
    91     001D                     	;# 
    92     001E                     	;# 
    93     001F                     	;# 
    94     0081                     	;# 
    95     0085                     	;# 
    96     0086                     	;# 
    97     0087                     	;# 
    98     0088                     	;# 
    99     0089                     	;# 
   100     008C                     	;# 
   101     008D                     	;# 
   102     008E                     	;# 
   103     008F                     	;# 
   104     0090                     	;# 
   105     0091                     	;# 
   106     0092                     	;# 
   107     0093                     	;# 
   108     0093                     	;# 
   109     0093                     	;# 
   110     0094                     	;# 
   111     0095                     	;# 
   112     0096                     	;# 
   113     0097                     	;# 
   114     0098                     	;# 
   115     0099                     	;# 
   116     009A                     	;# 
   117     009B                     	;# 
   118     009C                     	;# 
   119     009D                     	;# 
   120     009E                     	;# 
   121     009F                     	;# 
   122     0105                     	;# 
   123     0107                     	;# 
   124     0108                     	;# 
   125     0109                     	;# 
   126     010C                     	;# 
   127     010C                     	;# 
   128     010D                     	;# 
   129     010E                     	;# 
   130     010F                     	;# 
   131     0185                     	;# 
   132     0187                     	;# 
   133     0188                     	;# 
   134     0189                     	;# 
   135     018C                     	;# 
   136     018D                     	;# 
   137     0000                     	;# 
   138     0001                     	;# 
   139     0002                     	;# 
   140     0003                     	;# 
   141     0004                     	;# 
   142     0005                     	;# 
   143     0006                     	;# 
   144     0007                     	;# 
   145     0008                     	;# 
   146     0009                     	;# 
   147     000A                     	;# 
   148     000B                     	;# 
   149     000C                     	;# 
   150     000D                     	;# 
   151     000E                     	;# 
   152     000E                     	;# 
   153     000F                     	;# 
   154     0010                     	;# 
   155     0011                     	;# 
   156     0012                     	;# 
   157     0013                     	;# 
   158     0014                     	;# 
   159     0015                     	;# 
   160     0015                     	;# 
   161     0016                     	;# 
   162     0017                     	;# 
   163     0018                     	;# 
   164     0019                     	;# 
   165     001A                     	;# 
   166     001B                     	;# 
   167     001B                     	;# 
   168     001C                     	;# 
   169     001D                     	;# 
   170     001E                     	;# 
   171     001F                     	;# 
   172     0081                     	;# 
   173     0085                     	;# 
   174     0086                     	;# 
   175     0087                     	;# 
   176     0088                     	;# 
   177     0089                     	;# 
   178     008C                     	;# 
   179     008D                     	;# 
   180     008E                     	;# 
   181     008F                     	;# 
   182     0090                     	;# 
   183     0091                     	;# 
   184     0092                     	;# 
   185     0093                     	;# 
   186     0093                     	;# 
   187     0093                     	;# 
   188     0094                     	;# 
   189     0095                     	;# 
   190     0096                     	;# 
   191     0097                     	;# 
   192     0098                     	;# 
   193     0099                     	;# 
   194     009A                     	;# 
   195     009B                     	;# 
   196     009C                     	;# 
   197     009D                     	;# 
   198     009E                     	;# 
   199     009F                     	;# 
   200     0105                     	;# 
   201     0107                     	;# 
   202     0108                     	;# 
   203     0109                     	;# 
   204     010C                     	;# 
   205     010C                     	;# 
   206     010D                     	;# 
   207     010E                     	;# 
   208     010F                     	;# 
   209     0185                     	;# 
   210     0187                     	;# 
   211     0188                     	;# 
   212     0189                     	;# 
   213     018C                     	;# 
   214     018D                     	;# 
   215     0012                     _T2CONbits	set	18
   216     001D                     _CCP2CONbits	set	29
   217     0017                     _CCP1CONbits	set	23
   218     0009                     _PORTE	set	9
   219     0008                     _PORTD	set	8
   220     0007                     _PORTC	set	7
   221     0006                     _PORTB	set	6
   222     001B                     _CCPR2L	set	27
   223     0015                     _CCPR1L	set	21
   224     001E                     _ADRESH	set	30
   225     001F                     _ADCON0bits	set	31
   226     0001                     _TMR0	set	1
   227     0005                     _PORTAbits	set	5
   228     000B                     _INTCONbits	set	11
   229     0006                     _PORTBbits	set	6
   230     000C                     _PIR1bits	set	12
   231     0092                     _TMR2ON	set	146
   232     0061                     _TMR2IF	set	97
   233     0092                     _PR2	set	146
   234     0087                     _TRISCbits	set	135
   235     009F                     _ADCON1bits	set	159
   236     0081                     _OPTION_REGbits	set	129
   237     008C                     _PIE1bits	set	140
   238     008F                     _OSCCONbits	set	143
   239     0089                     _TRISE	set	137
   240     0088                     _TRISD	set	136
   241     0087                     _TRISC	set	135
   242     0086                     _TRISB	set	134
   243     0085                     _TRISAbits	set	133
   244     0188                     _ANSELbits	set	392
   245     0189                     _ANSELH	set	393
   246                           
   247                           	psect	cinit
   248     000F                     start_initialization:	
   249                           ; #config settings
   250                           
   251     000F                     __initialization:
   252                           
   253                           ; Clear objects allocated to BANK0
   254     000F  1283               	bcf	3,5	;RP0=0, select bank0
   255     0010  1303               	bcf	3,6	;RP1=0, select bank0
   256     0011  01E2               	clrf	__pbssBANK0& (0+127)
   257     0012  01E3               	clrf	(__pbssBANK0+1)& (0+127)
   258     0013  01E4               	clrf	(__pbssBANK0+2)& (0+127)
   259     0014  01E5               	clrf	(__pbssBANK0+3)& (0+127)
   260     0015  01E6               	clrf	(__pbssBANK0+4)& (0+127)
   261     0016  01E7               	clrf	(__pbssBANK0+5)& (0+127)
   262     0017  01E8               	clrf	(__pbssBANK0+6)& (0+127)
   263     0018  01E9               	clrf	(__pbssBANK0+7)& (0+127)
   264     0019  01EA               	clrf	(__pbssBANK0+8)& (0+127)
   265     001A                     end_of_initialization:	
   266                           ;End of C runtime variable initialization code
   267                           
   268     001A                     __end_of__initialization:
   269     001A  0183               	clrf	3
   270     001B  120A  118A  2E75   	ljmp	_main	;jump to C main() function
   271                           
   272                           	psect	bssBANK0
   273     0062                     __pbssBANK0:
   274     0062                     _SERVO:
   275     0062                     	ds	2
   276     0064                     _V3_ADRESH:
   277     0064                     	ds	2
   278     0066                     _V2_ADRESH:
   279     0066                     	ds	2
   280     0068                     _V1_ADRESH:
   281     0068                     	ds	2
   282     006A                     _CONT_TMR0:
   283     006A                     	ds	1
   284                           
   285                           	psect	cstackCOMMON
   286     0070                     __pcstackCOMMON:
   287     0070                     ?_setup:
   288     0070                     ?_setupADC:	
   289                           ; 1 bytes @ 0x0
   290                           
   291     0070                     ?_setupPWM:	
   292                           ; 1 bytes @ 0x0
   293                           
   294     0070                     ?_isr:	
   295                           ; 1 bytes @ 0x0
   296                           
   297     0070                     ??_isr:	
   298                           ; 1 bytes @ 0x0
   299                           
   300     0070                     ?_main:	
   301                           ; 1 bytes @ 0x0
   302                           
   303                           
   304                           ; 1 bytes @ 0x0
   305     0070                     	ds	3
   306     0073                     ??_setup:
   307     0073                     ??_setupADC:	
   308                           ; 1 bytes @ 0x3
   309                           
   310     0073                     ??_setupPWM:	
   311                           ; 1 bytes @ 0x3
   312                           
   313     0073                     ?__Umul8_16:	
   314                           ; 1 bytes @ 0x3
   315                           
   316     0073                     ?___xxtofl:	
   317                           ; 2 bytes @ 0x3
   318                           
   319     0073                     __Umul8_16@multiplicand:	
   320                           ; 4 bytes @ 0x3
   321                           
   322     0073                     ___xxtofl@val:	
   323                           ; 1 bytes @ 0x3
   324                           
   325                           
   326                           ; 4 bytes @ 0x3
   327     0073                     	ds	2
   328     0075                     ??__Umul8_16:
   329                           
   330                           ; 1 bytes @ 0x5
   331     0075                     	ds	2
   332     0077                     ??___xxtofl:
   333                           
   334                           ; 1 bytes @ 0x7
   335     0077                     	ds	4
   336     007B                     ??_convertir:
   337                           
   338                           	psect	cstackBANK0
   339     0020                     __pcstackBANK0:	
   340                           ; 1 bytes @ 0xB
   341                           
   342     0020                     ___xxtofl@sign:
   343     0020                     __Umul8_16@product:	
   344                           ; 1 bytes @ 0x0
   345                           
   346                           
   347                           ; 2 bytes @ 0x0
   348     0020                     	ds	1
   349     0021                     ___xxtofl@exp:
   350                           
   351                           ; 1 bytes @ 0x1
   352     0021                     	ds	1
   353     0022                     __Umul8_16@word_mpld:
   354     0022                     ___xxtofl@arg:	
   355                           ; 2 bytes @ 0x2
   356                           
   357                           
   358                           ; 4 bytes @ 0x2
   359     0022                     	ds	2
   360     0024                     __Umul8_16@multiplier:
   361                           
   362                           ; 1 bytes @ 0x4
   363     0024                     	ds	2
   364     0026                     ?___flmul:
   365     0026                     ___flmul@b:	
   366                           ; 4 bytes @ 0x6
   367                           
   368                           
   369                           ; 4 bytes @ 0x6
   370     0026                     	ds	4
   371     002A                     ___flmul@a:
   372                           
   373                           ; 4 bytes @ 0xA
   374     002A                     	ds	4
   375     002E                     ??___flmul:
   376                           
   377                           ; 1 bytes @ 0xE
   378     002E                     	ds	5
   379     0033                     ___flmul@sign:
   380                           
   381                           ; 1 bytes @ 0x13
   382     0033                     	ds	1
   383     0034                     ___flmul@grs:
   384                           
   385                           ; 4 bytes @ 0x14
   386     0034                     	ds	4
   387     0038                     ___flmul@aexp:
   388                           
   389                           ; 1 bytes @ 0x18
   390     0038                     	ds	1
   391     0039                     ___flmul@bexp:
   392                           
   393                           ; 1 bytes @ 0x19
   394     0039                     	ds	1
   395     003A                     ___flmul@prod:
   396                           
   397                           ; 4 bytes @ 0x1A
   398     003A                     	ds	4
   399     003E                     ___flmul@temp:
   400                           
   401                           ; 2 bytes @ 0x1E
   402     003E                     	ds	2
   403     0040                     ?___fladd:
   404     0040                     ___fladd@b:	
   405                           ; 4 bytes @ 0x20
   406                           
   407                           
   408                           ; 4 bytes @ 0x20
   409     0040                     	ds	4
   410     0044                     ___fladd@a:
   411                           
   412                           ; 4 bytes @ 0x24
   413     0044                     	ds	4
   414     0048                     ??___fladd:
   415                           
   416                           ; 1 bytes @ 0x28
   417     0048                     	ds	8
   418     0050                     ___fladd@signs:
   419                           
   420                           ; 1 bytes @ 0x30
   421     0050                     	ds	1
   422     0051                     ___fladd@aexp:
   423                           
   424                           ; 1 bytes @ 0x31
   425     0051                     	ds	1
   426     0052                     ___fladd@bexp:
   427                           
   428                           ; 1 bytes @ 0x32
   429     0052                     	ds	1
   430     0053                     ___fladd@grs:
   431                           
   432                           ; 1 bytes @ 0x33
   433     0053                     	ds	1
   434     0054                     ?___fltol:
   435     0054                     ___fltol@f1:	
   436                           ; 4 bytes @ 0x34
   437                           
   438                           
   439                           ; 4 bytes @ 0x34
   440     0054                     	ds	4
   441     0058                     ??___fltol:
   442                           
   443                           ; 1 bytes @ 0x38
   444     0058                     	ds	4
   445     005C                     ___fltol@sign1:
   446                           
   447                           ; 1 bytes @ 0x3C
   448     005C                     	ds	1
   449     005D                     ___fltol@exp1:
   450                           
   451                           ; 1 bytes @ 0x3D
   452     005D                     	ds	1
   453     005E                     ?_convertir:
   454     005E                     convertir@V_ADRESH:	
   455                           ; 1 bytes @ 0x3E
   456                           
   457                           
   458                           ; 2 bytes @ 0x3E
   459     005E                     	ds	2
   460     0060                     ??_main:
   461                           
   462                           ; 1 bytes @ 0x40
   463     0060                     	ds	2
   464                           
   465                           	psect	maintext
   466     0675                     __pmaintext:	
   467 ;;
   468 ;;Main: autosize = 0, tempsize = 2, incstack = 0, save=0
   469 ;;
   470 ;; *************** function _main *****************
   471 ;; Defined at:
   472 ;;		line 103 in file "main.c"
   473 ;; Parameters:    Size  Location     Type
   474 ;;		None
   475 ;; Auto vars:     Size  Location     Type
   476 ;;		None
   477 ;; Return value:  Size  Location     Type
   478 ;;                  1    wreg      void 
   479 ;; Registers used:
   480 ;;		wreg, status,2, status,0, btemp+1, pclath, cstack
   481 ;; Tracked objects:
   482 ;;		On entry : B00/0
   483 ;;		On exit  : 0/0
   484 ;;		Unchanged: 0/0
   485 ;; Data sizes:     COMMON   BANK0   BANK1   BANK3   BANK2
   486 ;;      Params:         0       0       0       0       0
   487 ;;      Locals:         0       0       0       0       0
   488 ;;      Temps:          0       2       0       0       0
   489 ;;      Totals:         0       2       0       0       0
   490 ;;Total ram usage:        2 bytes
   491 ;; Hardware stack levels required when called: 4
   492 ;; This function calls:
   493 ;;		_convertir
   494 ;;		_setup
   495 ;;		_setupADC
   496 ;;		_setupPWM
   497 ;; This function is called by:
   498 ;;		Startup code after reset
   499 ;; This function uses a non-reentrant model
   500 ;;
   501                           
   502     0675                     _main:	
   503                           ;psect for function _main
   504                           
   505     0675                     l1755:	
   506                           ;incstack = 0
   507                           ; Regs used in _main: [wreg+status,2+status,0+btemp+1+pclath+cstack]
   508                           
   509                           
   510                           ;main.c: 105:     setup();
   511     0675  120A  158A  27D3  120A  118A  	fcall	_setup
   512                           
   513                           ;main.c: 106:     setupADC();
   514     067A  120A  158A  27A7  120A  118A  	fcall	_setupADC
   515                           
   516                           ;main.c: 107:     setupPWM();
   517     067F  120A  158A  2759  120A  118A  	fcall	_setupPWM
   518     0684                     l1757:
   519                           
   520                           ;main.c: 109:     CONT_TMR0 = 0;
   521     0684  1283               	bcf	3,5	;RP0=0, select bank0
   522     0685  1303               	bcf	3,6	;RP1=0, select bank0
   523     0686  01EA               	clrf	_CONT_TMR0
   524     0687                     l1759:
   525                           
   526                           ;main.c: 117:         ADCON0bits.CHS = 0b0001;
   527     0687  1283               	bcf	3,5	;RP0=0, select bank0
   528     0688  1303               	bcf	3,6	;RP1=0, select bank0
   529     0689  081F               	movf	31,w	;volatile
   530     068A  39C3               	andlw	-61
   531     068B  3804               	iorlw	4
   532     068C  009F               	movwf	31	;volatile
   533     068D                     l1761:
   534                           
   535                           ;main.c: 118:         _delay((unsigned long)((100)*(500000/4000000.0)));
   536     068D  3003               	movlw	3
   537     068E  1283               	bcf	3,5	;RP0=0, select bank0
   538     068F  1303               	bcf	3,6	;RP1=0, select bank0
   539     0690  00E0               	movwf	??_main
   540     0691                     u2357:
   541     0691  0BE0               	decfsz	??_main,f
   542     0692  2E91               	goto	u2357
   543     0693                     l1763:
   544                           
   545                           ;main.c: 119:         ADCON0bits.GO = 1;
   546     0693  1283               	bcf	3,5	;RP0=0, select bank0
   547     0694  1303               	bcf	3,6	;RP1=0, select bank0
   548     0695  149F               	bsf	31,1	;volatile
   549     0696                     l97:	
   550                           ;main.c: 120:         while (ADCON0bits.GO == 1){};
   551                           
   552     0696  189F               	btfsc	31,1	;volatile
   553     0697  2E99               	goto	u2321
   554     0698  2E9A               	goto	u2320
   555     0699                     u2321:
   556     0699  2E96               	goto	l97
   557     069A                     u2320:
   558     069A                     l1765:
   559                           
   560                           ;main.c: 122:         V1_ADRESH = ADRESH;
   561     069A  081E               	movf	30,w	;volatile
   562     069B  00E0               	movwf	??_main
   563     069C  01E1               	clrf	??_main+1
   564     069D  0860               	movf	??_main,w
   565     069E  00E8               	movwf	_V1_ADRESH
   566     069F  0861               	movf	??_main+1,w
   567     06A0  00E9               	movwf	_V1_ADRESH+1
   568     06A1                     l1767:
   569                           
   570                           ;main.c: 123:         convertir(V1_ADRESH);
   571     06A1  0869               	movf	_V1_ADRESH+1,w
   572     06A2  00DF               	movwf	convertir@V_ADRESH+1
   573     06A3  0868               	movf	_V1_ADRESH,w
   574     06A4  00DE               	movwf	convertir@V_ADRESH
   575     06A5  120A  118A  277D  120A  118A  	fcall	_convertir
   576     06AA                     l1769:
   577                           
   578                           ;main.c: 124:         CCPR1L = SERVO;
   579     06AA  1283               	bcf	3,5	;RP0=0, select bank0
   580     06AB  1303               	bcf	3,6	;RP1=0, select bank0
   581     06AC  0862               	movf	_SERVO,w
   582     06AD  0095               	movwf	21	;volatile
   583     06AE                     l1771:
   584                           
   585                           ;main.c: 125:         _delay((unsigned long)((100)*(500000/4000000.0)));
   586     06AE  3003               	movlw	3
   587     06AF  1283               	bcf	3,5	;RP0=0, select bank0
   588     06B0  1303               	bcf	3,6	;RP1=0, select bank0
   589     06B1  00E0               	movwf	??_main
   590     06B2                     u2367:
   591     06B2  0BE0               	decfsz	??_main,f
   592     06B3  2EB2               	goto	u2367
   593     06B4                     l1773:
   594                           
   595                           ;main.c: 131:         ADCON0bits.CHS = 0b0010;
   596     06B4  1283               	bcf	3,5	;RP0=0, select bank0
   597     06B5  1303               	bcf	3,6	;RP1=0, select bank0
   598     06B6  081F               	movf	31,w	;volatile
   599     06B7  39C3               	andlw	-61
   600     06B8  3808               	iorlw	8
   601     06B9  009F               	movwf	31	;volatile
   602     06BA                     l1775:
   603                           
   604                           ;main.c: 132:         _delay((unsigned long)((100)*(500000/4000000.0)));
   605     06BA  3003               	movlw	3
   606     06BB  1283               	bcf	3,5	;RP0=0, select bank0
   607     06BC  1303               	bcf	3,6	;RP1=0, select bank0
   608     06BD  00E0               	movwf	??_main
   609     06BE                     u2377:
   610     06BE  0BE0               	decfsz	??_main,f
   611     06BF  2EBE               	goto	u2377
   612     06C0                     l1777:
   613                           
   614                           ;main.c: 133:         ADCON0bits.GO = 1;
   615     06C0  1283               	bcf	3,5	;RP0=0, select bank0
   616     06C1  1303               	bcf	3,6	;RP1=0, select bank0
   617     06C2  149F               	bsf	31,1	;volatile
   618     06C3                     l100:	
   619                           ;main.c: 134:         while (ADCON0bits.GO == 1){};
   620                           
   621     06C3  189F               	btfsc	31,1	;volatile
   622     06C4  2EC6               	goto	u2331
   623     06C5  2EC7               	goto	u2330
   624     06C6                     u2331:
   625     06C6  2EC3               	goto	l100
   626     06C7                     u2330:
   627     06C7                     l1779:
   628                           
   629                           ;main.c: 136:         V2_ADRESH = ADRESH;
   630     06C7  081E               	movf	30,w	;volatile
   631     06C8  00E0               	movwf	??_main
   632     06C9  01E1               	clrf	??_main+1
   633     06CA  0860               	movf	??_main,w
   634     06CB  00E6               	movwf	_V2_ADRESH
   635     06CC  0861               	movf	??_main+1,w
   636     06CD  00E7               	movwf	_V2_ADRESH+1
   637     06CE                     l1781:
   638                           
   639                           ;main.c: 137:         convertir(V2_ADRESH);
   640     06CE  0867               	movf	_V2_ADRESH+1,w
   641     06CF  00DF               	movwf	convertir@V_ADRESH+1
   642     06D0  0866               	movf	_V2_ADRESH,w
   643     06D1  00DE               	movwf	convertir@V_ADRESH
   644     06D2  120A  118A  277D  120A  118A  	fcall	_convertir
   645     06D7                     l1783:
   646                           
   647                           ;main.c: 138:         CCPR2L = SERVO;
   648     06D7  1283               	bcf	3,5	;RP0=0, select bank0
   649     06D8  1303               	bcf	3,6	;RP1=0, select bank0
   650     06D9  0862               	movf	_SERVO,w
   651     06DA  009B               	movwf	27	;volatile
   652     06DB                     l1785:
   653                           
   654                           ;main.c: 139:         _delay((unsigned long)((100)*(500000/4000000.0)));
   655     06DB  3003               	movlw	3
   656     06DC  1283               	bcf	3,5	;RP0=0, select bank0
   657     06DD  1303               	bcf	3,6	;RP1=0, select bank0
   658     06DE  00E0               	movwf	??_main
   659     06DF                     u2387:
   660     06DF  0BE0               	decfsz	??_main,f
   661     06E0  2EDF               	goto	u2387
   662     06E1                     l1787:
   663                           
   664                           ;main.c: 145:         ADCON0bits.CHS = 0b0011;
   665     06E1  1283               	bcf	3,5	;RP0=0, select bank0
   666     06E2  1303               	bcf	3,6	;RP1=0, select bank0
   667     06E3  081F               	movf	31,w	;volatile
   668     06E4  39C3               	andlw	-61
   669     06E5  380C               	iorlw	12
   670     06E6  009F               	movwf	31	;volatile
   671     06E7                     l1789:
   672                           
   673                           ;main.c: 146:         _delay((unsigned long)((100)*(500000/4000000.0)));
   674     06E7  3003               	movlw	3
   675     06E8  1283               	bcf	3,5	;RP0=0, select bank0
   676     06E9  1303               	bcf	3,6	;RP1=0, select bank0
   677     06EA  00E0               	movwf	??_main
   678     06EB                     u2397:
   679     06EB  0BE0               	decfsz	??_main,f
   680     06EC  2EEB               	goto	u2397
   681     06ED                     l1791:
   682                           
   683                           ;main.c: 147:         ADCON0bits.GO = 1;
   684     06ED  1283               	bcf	3,5	;RP0=0, select bank0
   685     06EE  1303               	bcf	3,6	;RP1=0, select bank0
   686     06EF  149F               	bsf	31,1	;volatile
   687     06F0                     l103:	
   688                           ;main.c: 148:         while (ADCON0bits.GO == 1){};
   689                           
   690     06F0  189F               	btfsc	31,1	;volatile
   691     06F1  2EF3               	goto	u2341
   692     06F2  2EF4               	goto	u2340
   693     06F3                     u2341:
   694     06F3  2EF0               	goto	l103
   695     06F4                     u2340:
   696     06F4                     l1793:
   697                           
   698                           ;main.c: 150:         V3_ADRESH = ADRESH;
   699     06F4  081E               	movf	30,w	;volatile
   700     06F5  00E0               	movwf	??_main
   701     06F6  01E1               	clrf	??_main+1
   702     06F7  0860               	movf	??_main,w
   703     06F8  00E4               	movwf	_V3_ADRESH
   704     06F9  0861               	movf	??_main+1,w
   705     06FA  00E5               	movwf	_V3_ADRESH+1
   706                           
   707                           ;main.c: 151:         _delay((unsigned long)((100)*(500000/4000000.0)));
   708     06FB  3003               	movlw	3
   709     06FC  1283               	bcf	3,5	;RP0=0, select bank0
   710     06FD  1303               	bcf	3,6	;RP1=0, select bank0
   711     06FE  00E0               	movwf	??_main
   712     06FF                     u2407:
   713     06FF  0BE0               	decfsz	??_main,f
   714     0700  2EFF               	goto	u2407
   715     0701  2E87               	goto	l1759
   716     0702  120A  118A  280C   	ljmp	start
   717     0705                     __end_of_main:
   718                           
   719                           	psect	text1
   720     0F59                     __ptext1:	
   721 ;; *************** function _setupPWM *****************
   722 ;; Defined at:
   723 ;;		line 236 in file "main.c"
   724 ;; Parameters:    Size  Location     Type
   725 ;;		None
   726 ;; Auto vars:     Size  Location     Type
   727 ;;		None
   728 ;; Return value:  Size  Location     Type
   729 ;;                  1    wreg      void 
   730 ;; Registers used:
   731 ;;		wreg, status,2, status,0
   732 ;; Tracked objects:
   733 ;;		On entry : 0/0
   734 ;;		On exit  : 0/0
   735 ;;		Unchanged: 0/0
   736 ;; Data sizes:     COMMON   BANK0   BANK1   BANK3   BANK2
   737 ;;      Params:         0       0       0       0       0
   738 ;;      Locals:         0       0       0       0       0
   739 ;;      Temps:          0       0       0       0       0
   740 ;;      Totals:         0       0       0       0       0
   741 ;;Total ram usage:        0 bytes
   742 ;; Hardware stack levels used: 1
   743 ;; Hardware stack levels required when called: 1
   744 ;; This function calls:
   745 ;;		Nothing
   746 ;; This function is called by:
   747 ;;		_main
   748 ;; This function uses a non-reentrant model
   749 ;;
   750                           
   751     0F59                     _setupPWM:	
   752                           ;psect for function _setupPWM
   753                           
   754     0F59                     l1717:	
   755                           ;incstack = 0
   756                           ; Regs used in _setupPWM: [wreg+status,2+status,0]
   757                           
   758                           
   759                           ;main.c: 240:     TRISCbits.TRISC2 = 1;
   760     0F59  1683               	bsf	3,5	;RP0=1, select bank1
   761     0F5A  1303               	bcf	3,6	;RP1=0, select bank1
   762     0F5B  1507               	bsf	7,2	;volatile
   763                           
   764                           ;main.c: 241:     TRISCbits.TRISC1 = 1;
   765     0F5C  1487               	bsf	7,1	;volatile
   766     0F5D                     l1719:
   767                           
   768                           ;main.c: 245:     PR2 = 155;
   769     0F5D  309B               	movlw	155
   770     0F5E  0092               	movwf	18	;volatile
   771     0F5F                     l1721:
   772                           
   773                           ;main.c: 249:     CCP1CONbits.P1M = 0b00;
   774     0F5F  303F               	movlw	-193
   775     0F60  1283               	bcf	3,5	;RP0=0, select bank0
   776     0F61  1303               	bcf	3,6	;RP1=0, select bank0
   777     0F62  0597               	andwf	23,f	;volatile
   778     0F63                     l1723:
   779                           
   780                           ;main.c: 251:     CCP1CONbits.CCP1M = 0b1100;
   781     0F63  0817               	movf	23,w	;volatile
   782     0F64  39F0               	andlw	-16
   783     0F65  380C               	iorlw	12
   784     0F66  0097               	movwf	23	;volatile
   785     0F67                     l1725:
   786                           
   787                           ;main.c: 252:     CCP2CONbits.CCP2M = 0b1111;
   788     0F67  300F               	movlw	15
   789     0F68  049D               	iorwf	29,f	;volatile
   790     0F69                     l1727:
   791                           
   792                           ;main.c: 256:     CCP1CONbits.DC1B = 0b11;
   793     0F69  3030               	movlw	48
   794     0F6A  0497               	iorwf	23,f	;volatile
   795     0F6B                     l1729:
   796                           
   797                           ;main.c: 257:     CCP2CONbits.DC2B1 = 0b1;
   798     0F6B  169D               	bsf	29,5	;volatile
   799     0F6C                     l1731:
   800                           
   801                           ;main.c: 258:     CCP2CONbits.DC2B0 = 0b1;
   802     0F6C  161D               	bsf	29,4	;volatile
   803                           
   804                           ;main.c: 260:     CCPR1L = 11;
   805     0F6D  300B               	movlw	11
   806     0F6E  0095               	movwf	21	;volatile
   807                           
   808                           ;main.c: 261:     CCPR2L = 11;
   809     0F6F  300B               	movlw	11
   810     0F70  009B               	movwf	27	;volatile
   811     0F71                     l1733:
   812                           
   813                           ;main.c: 267:     TMR2IF = 0;
   814     0F71  108C               	bcf	12,1	;volatile
   815     0F72                     l1735:
   816                           
   817                           ;main.c: 268:     T2CONbits.T2CKPS = 0b11;
   818     0F72  3003               	movlw	3
   819     0F73  0492               	iorwf	18,f	;volatile
   820     0F74                     l1737:
   821                           
   822                           ;main.c: 269:     TMR2ON = 1;
   823     0F74  1512               	bsf	18,2	;volatile
   824     0F75                     l117:	
   825                           ;main.c: 273:     while(!TMR2IF){};
   826                           
   827     0F75  1C8C               	btfss	12,1	;volatile
   828     0F76  2F78               	goto	u2281
   829     0F77  2F79               	goto	u2280
   830     0F78                     u2281:
   831     0F78  2F75               	goto	l117
   832     0F79                     u2280:
   833     0F79                     l119:
   834                           
   835                           ;main.c: 275:     TRISCbits.TRISC2 = 0;
   836     0F79  1683               	bsf	3,5	;RP0=1, select bank1
   837     0F7A  1303               	bcf	3,6	;RP1=0, select bank1
   838     0F7B  1107               	bcf	7,2	;volatile
   839                           
   840                           ;main.c: 276:     TRISCbits.TRISC1 = 0;
   841     0F7C  1087               	bcf	7,1	;volatile
   842     0F7D                     l120:
   843     0F7D  0008               	return
   844     0F7E                     __end_of_setupPWM:
   845                           
   846                           	psect	text2
   847     0FA7                     __ptext2:	
   848 ;; *************** function _setupADC *****************
   849 ;; Defined at:
   850 ;;		line 203 in file "main.c"
   851 ;; Parameters:    Size  Location     Type
   852 ;;		None
   853 ;; Auto vars:     Size  Location     Type
   854 ;;		None
   855 ;; Return value:  Size  Location     Type
   856 ;;                  1    wreg      void 
   857 ;; Registers used:
   858 ;;		wreg
   859 ;; Tracked objects:
   860 ;;		On entry : 0/0
   861 ;;		On exit  : 0/0
   862 ;;		Unchanged: 0/0
   863 ;; Data sizes:     COMMON   BANK0   BANK1   BANK3   BANK2
   864 ;;      Params:         0       0       0       0       0
   865 ;;      Locals:         0       0       0       0       0
   866 ;;      Temps:          1       0       0       0       0
   867 ;;      Totals:         1       0       0       0       0
   868 ;;Total ram usage:        1 bytes
   869 ;; Hardware stack levels used: 1
   870 ;; Hardware stack levels required when called: 1
   871 ;; This function calls:
   872 ;;		Nothing
   873 ;; This function is called by:
   874 ;;		_main
   875 ;; This function uses a non-reentrant model
   876 ;;
   877                           
   878     0FA7                     _setupADC:	
   879                           ;psect for function _setupADC
   880                           
   881     0FA7                     l1713:	
   882                           ;incstack = 0
   883                           ; Regs used in _setupADC: [wreg]
   884                           
   885                           
   886                           ;main.c: 207:     TRISAbits.TRISA0 = 1;
   887     0FA7  1683               	bsf	3,5	;RP0=1, select bank1
   888     0FA8  1303               	bcf	3,6	;RP1=0, select bank1
   889     0FA9  1405               	bsf	5,0	;volatile
   890                           
   891                           ;main.c: 208:     ANSELbits.ANS0 = 1;
   892     0FAA  1683               	bsf	3,5	;RP0=1, select bank3
   893     0FAB  1703               	bsf	3,6	;RP1=1, select bank3
   894     0FAC  1408               	bsf	8,0	;volatile
   895                           
   896                           ;main.c: 210:     TRISAbits.TRISA1 = 1;
   897     0FAD  1683               	bsf	3,5	;RP0=1, select bank1
   898     0FAE  1303               	bcf	3,6	;RP1=0, select bank1
   899     0FAF  1485               	bsf	5,1	;volatile
   900                           
   901                           ;main.c: 211:     ANSELbits.ANS1 = 1;
   902     0FB0  1683               	bsf	3,5	;RP0=1, select bank3
   903     0FB1  1703               	bsf	3,6	;RP1=1, select bank3
   904     0FB2  1488               	bsf	8,1	;volatile
   905                           
   906                           ;main.c: 213:     TRISAbits.TRISA2 = 1;
   907     0FB3  1683               	bsf	3,5	;RP0=1, select bank1
   908     0FB4  1303               	bcf	3,6	;RP1=0, select bank1
   909     0FB5  1505               	bsf	5,2	;volatile
   910                           
   911                           ;main.c: 214:     ANSELbits.ANS2 = 1;
   912     0FB6  1683               	bsf	3,5	;RP0=1, select bank3
   913     0FB7  1703               	bsf	3,6	;RP1=1, select bank3
   914     0FB8  1508               	bsf	8,2	;volatile
   915                           
   916                           ;main.c: 218:     ADCON0bits.ADCS0 = 1;
   917     0FB9  1283               	bcf	3,5	;RP0=0, select bank0
   918     0FBA  1303               	bcf	3,6	;RP1=0, select bank0
   919     0FBB  171F               	bsf	31,6	;volatile
   920                           
   921                           ;main.c: 219:     ADCON0bits.ADCS1 = 0;
   922     0FBC  139F               	bcf	31,7	;volatile
   923                           
   924                           ;main.c: 221:     ADCON1bits.VCFG0 = 0;
   925     0FBD  1683               	bsf	3,5	;RP0=1, select bank1
   926     0FBE  1303               	bcf	3,6	;RP1=0, select bank1
   927     0FBF  121F               	bcf	31,4	;volatile
   928                           
   929                           ;main.c: 222:     ADCON1bits.VCFG1 = 0;
   930     0FC0  129F               	bcf	31,5	;volatile
   931                           
   932                           ;main.c: 224:     ADCON0bits.CHS0 = 0;
   933     0FC1  1283               	bcf	3,5	;RP0=0, select bank0
   934     0FC2  1303               	bcf	3,6	;RP1=0, select bank0
   935     0FC3  111F               	bcf	31,2	;volatile
   936                           
   937                           ;main.c: 225:     ADCON0bits.CHS1 = 0;
   938     0FC4  119F               	bcf	31,3	;volatile
   939                           
   940                           ;main.c: 226:     ADCON0bits.CHS2 = 0;
   941     0FC5  121F               	bcf	31,4	;volatile
   942                           
   943                           ;main.c: 227:     ADCON0bits.CHS3 = 0;
   944     0FC6  129F               	bcf	31,5	;volatile
   945                           
   946                           ;main.c: 229:     ADCON1bits.ADFM = 0;
   947     0FC7  1683               	bsf	3,5	;RP0=1, select bank1
   948     0FC8  1303               	bcf	3,6	;RP1=0, select bank1
   949     0FC9  139F               	bcf	31,7	;volatile
   950                           
   951                           ;main.c: 231:     ADCON0bits.ADON = 1;
   952     0FCA  1283               	bcf	3,5	;RP0=0, select bank0
   953     0FCB  1303               	bcf	3,6	;RP1=0, select bank0
   954     0FCC  141F               	bsf	31,0	;volatile
   955     0FCD                     l1715:
   956                           
   957                           ;main.c: 233:     _delay((unsigned long)((100)*(500000/4000000.0)));
   958     0FCD  3003               	movlw	3
   959     0FCE  00F3               	movwf	??_setupADC
   960     0FCF                     u2417:
   961     0FCF  0BF3               	decfsz	??_setupADC,f
   962     0FD0  2FCF               	goto	u2417
   963     0FD1  2FD2               	nop2
   964     0FD2                     l114:
   965     0FD2  0008               	return
   966     0FD3                     __end_of_setupADC:
   967                           
   968                           	psect	text3
   969     0FD3                     __ptext3:	
   970 ;; *************** function _setup *****************
   971 ;; Defined at:
   972 ;;		line 160 in file "main.c"
   973 ;; Parameters:    Size  Location     Type
   974 ;;		None
   975 ;; Auto vars:     Size  Location     Type
   976 ;;		None
   977 ;; Return value:  Size  Location     Type
   978 ;;                  1    wreg      void 
   979 ;; Registers used:
   980 ;;		wreg, status,2, status,0
   981 ;; Tracked objects:
   982 ;;		On entry : 0/0
   983 ;;		On exit  : 0/0
   984 ;;		Unchanged: 0/0
   985 ;; Data sizes:     COMMON   BANK0   BANK1   BANK3   BANK2
   986 ;;      Params:         0       0       0       0       0
   987 ;;      Locals:         0       0       0       0       0
   988 ;;      Temps:          0       0       0       0       0
   989 ;;      Totals:         0       0       0       0       0
   990 ;;Total ram usage:        0 bytes
   991 ;; Hardware stack levels used: 1
   992 ;; Hardware stack levels required when called: 1
   993 ;; This function calls:
   994 ;;		Nothing
   995 ;; This function is called by:
   996 ;;		_main
   997 ;; This function uses a non-reentrant model
   998 ;;
   999                           
  1000     0FD3                     _setup:	
  1001                           ;psect for function _setup
  1002                           
  1003     0FD3                     l1683:	
  1004                           ;incstack = 0
  1005                           ; Regs used in _setup: [wreg+status,2+status,0]
  1006                           
  1007                           
  1008                           ;main.c: 162:     ANSELH = 0;
  1009     0FD3  1683               	bsf	3,5	;RP0=1, select bank3
  1010     0FD4  1703               	bsf	3,6	;RP1=1, select bank3
  1011     0FD5  0189               	clrf	9	;volatile
  1012     0FD6                     l1685:
  1013                           
  1014                           ;main.c: 164:     TRISAbits.TRISA7 = 0;
  1015     0FD6  1683               	bsf	3,5	;RP0=1, select bank1
  1016     0FD7  1303               	bcf	3,6	;RP1=0, select bank1
  1017     0FD8  1385               	bcf	5,7	;volatile
  1018                           
  1019                           ;main.c: 165:     TRISB = 0;
  1020     0FD9  0186               	clrf	6	;volatile
  1021                           
  1022                           ;main.c: 166:     TRISC = 0;
  1023     0FDA  0187               	clrf	7	;volatile
  1024                           
  1025                           ;main.c: 167:     TRISD = 0;
  1026     0FDB  0188               	clrf	8	;volatile
  1027                           
  1028                           ;main.c: 168:     TRISE = 0;
  1029     0FDC  0189               	clrf	9	;volatile
  1030     0FDD                     l1687:
  1031                           
  1032                           ;main.c: 170:     PORTAbits.RA7 = 0;
  1033     0FDD  1283               	bcf	3,5	;RP0=0, select bank0
  1034     0FDE  1303               	bcf	3,6	;RP1=0, select bank0
  1035     0FDF  1385               	bcf	5,7	;volatile
  1036                           
  1037                           ;main.c: 171:     PORTB = 0;
  1038     0FE0  0186               	clrf	6	;volatile
  1039                           
  1040                           ;main.c: 172:     PORTC = 0;
  1041     0FE1  0187               	clrf	7	;volatile
  1042                           
  1043                           ;main.c: 173:     PORTD = 0;
  1044     0FE2  0188               	clrf	8	;volatile
  1045                           
  1046                           ;main.c: 174:     PORTE = 0;
  1047     0FE3  0189               	clrf	9	;volatile
  1048     0FE4                     l1689:
  1049                           
  1050                           ;main.c: 176:     INTCONbits.GIE = 1;
  1051     0FE4  178B               	bsf	11,7	;volatile
  1052     0FE5                     l1691:
  1053                           
  1054                           ;main.c: 177:     INTCONbits.PEIE = 1;
  1055     0FE5  170B               	bsf	11,6	;volatile
  1056     0FE6                     l1693:
  1057                           
  1058                           ;main.c: 183:     OSCCONbits.IRCF = 0b011 ;
  1059     0FE6  1683               	bsf	3,5	;RP0=1, select bank1
  1060     0FE7  1303               	bcf	3,6	;RP1=0, select bank1
  1061     0FE8  080F               	movf	15,w	;volatile
  1062     0FE9  398F               	andlw	-113
  1063     0FEA  3830               	iorlw	48
  1064     0FEB  008F               	movwf	15	;volatile
  1065     0FEC                     l1695:
  1066                           
  1067                           ;main.c: 184:     OSCCONbits.SCS = 1;
  1068     0FEC  140F               	bsf	15,0	;volatile
  1069     0FED                     l1697:
  1070                           
  1071                           ;main.c: 188:     PIE1bits.ADIE = 1;
  1072     0FED  170C               	bsf	12,6	;volatile
  1073     0FEE                     l1699:
  1074                           
  1075                           ;main.c: 189:     PIR1bits.ADIF = 0;
  1076     0FEE  1283               	bcf	3,5	;RP0=0, select bank0
  1077     0FEF  1303               	bcf	3,6	;RP1=0, select bank0
  1078     0FF0  130C               	bcf	12,6	;volatile
  1079     0FF1                     l1701:
  1080                           
  1081                           ;main.c: 193:     OPTION_REGbits.T0CS = 0;
  1082     0FF1  1683               	bsf	3,5	;RP0=1, select bank1
  1083     0FF2  1303               	bcf	3,6	;RP1=0, select bank1
  1084     0FF3  1281               	bcf	1,5	;volatile
  1085     0FF4                     l1703:
  1086                           
  1087                           ;main.c: 194:     OPTION_REGbits.PSA = 0;
  1088     0FF4  1181               	bcf	1,3	;volatile
  1089     0FF5                     l1705:
  1090                           
  1091                           ;main.c: 195:     OPTION_REGbits.PS = 0b011;
  1092     0FF5  0801               	movf	1,w	;volatile
  1093     0FF6  39F8               	andlw	-8
  1094     0FF7  3803               	iorlw	3
  1095     0FF8  0081               	movwf	1	;volatile
  1096     0FF9                     l1707:
  1097                           
  1098                           ;main.c: 196:     TMR0 = 240;
  1099     0FF9  30F0               	movlw	240
  1100     0FFA  1283               	bcf	3,5	;RP0=0, select bank0
  1101     0FFB  1303               	bcf	3,6	;RP1=0, select bank0
  1102     0FFC  0081               	movwf	1	;volatile
  1103     0FFD                     l1709:
  1104                           
  1105                           ;main.c: 198:     INTCONbits.PEIE = 1;
  1106     0FFD  170B               	bsf	11,6	;volatile
  1107     0FFE                     l1711:
  1108                           
  1109                           ;main.c: 199:     INTCONbits.T0IF = 0;
  1110     0FFE  110B               	bcf	11,2	;volatile
  1111     0FFF                     l111:
  1112     0FFF  0008               	return
  1113     1000                     __end_of_setup:
  1114                           
  1115                           	psect	text4
  1116     077D                     __ptext4:	
  1117 ;; *************** function _convertir *****************
  1118 ;; Defined at:
  1119 ;;		line 280 in file "main.c"
  1120 ;; Parameters:    Size  Location     Type
  1121 ;;  V_ADRESH        2   62[BANK0 ] int 
  1122 ;; Auto vars:     Size  Location     Type
  1123 ;;		None
  1124 ;; Return value:  Size  Location     Type
  1125 ;;                  1    wreg      void 
  1126 ;; Registers used:
  1127 ;;		wreg, status,2, status,0, btemp+1, pclath, cstack
  1128 ;; Tracked objects:
  1129 ;;		On entry : 0/0
  1130 ;;		On exit  : 0/0
  1131 ;;		Unchanged: 0/0
  1132 ;; Data sizes:     COMMON   BANK0   BANK1   BANK3   BANK2
  1133 ;;      Params:         0       2       0       0       0
  1134 ;;      Locals:         0       0       0       0       0
  1135 ;;      Temps:          0       0       0       0       0
  1136 ;;      Totals:         0       2       0       0       0
  1137 ;;Total ram usage:        2 bytes
  1138 ;; Hardware stack levels used: 1
  1139 ;; Hardware stack levels required when called: 3
  1140 ;; This function calls:
  1141 ;;		___fladd
  1142 ;;		___flmul
  1143 ;;		___fltol
  1144 ;;		___xxtofl
  1145 ;; This function is called by:
  1146 ;;		_main
  1147 ;; This function uses a non-reentrant model
  1148 ;;
  1149                           
  1150     077D                     _convertir:	
  1151                           ;psect for function _convertir
  1152                           
  1153     077D                     l1739:	
  1154                           ;incstack = 0
  1155                           ; Regs used in _convertir: [wreg+status,2+status,0+btemp+1+pclath+cstack]
  1156                           
  1157                           
  1158                           ;main.c: 282:     SERVO = (unsigned short) (7+( (float)(14)/(255) ) * (V_ADRESH-0));
  1159     077D  1283               	bcf	3,5	;RP0=0, select bank0
  1160     077E  1303               	bcf	3,6	;RP1=0, select bank0
  1161     077F  085E               	movf	convertir@V_ADRESH,w
  1162     0780  00F3               	movwf	___xxtofl@val
  1163     0781  085F               	movf	convertir@V_ADRESH+1,w
  1164     0782  00F4               	movwf	___xxtofl@val+1
  1165     0783  3000               	movlw	0
  1166     0784  1BF4               	btfsc	___xxtofl@val+1,7
  1167     0785  30FF               	movlw	255
  1168     0786  00F5               	movwf	___xxtofl@val+2
  1169     0787  00F6               	movwf	___xxtofl@val+3
  1170     0788  3001               	movlw	1
  1171     0789  120A  118A  25BB  120A  118A  	fcall	___xxtofl
  1172     078E  0876               	movf	?___xxtofl+3,w
  1173     078F  1283               	bcf	3,5	;RP0=0, select bank0
  1174     0790  1303               	bcf	3,6	;RP1=0, select bank0
  1175     0791  00AD               	movwf	___flmul@a+3
  1176     0792  0875               	movf	?___xxtofl+2,w
  1177     0793  00AC               	movwf	___flmul@a+2
  1178     0794  0874               	movf	?___xxtofl+1,w
  1179     0795  00AB               	movwf	___flmul@a+1
  1180     0796  0873               	movf	?___xxtofl,w
  1181     0797  00AA               	movwf	___flmul@a
  1182     0798  303D               	movlw	61
  1183     0799  00A9               	movwf	___flmul@b+3
  1184     079A  3060               	movlw	96
  1185     079B  00A8               	movwf	___flmul@b+2
  1186     079C  30E0               	movlw	224
  1187     079D  00A7               	movwf	___flmul@b+1
  1188     079E  30E1               	movlw	225
  1189     079F  00A6               	movwf	___flmul@b
  1190     07A0  120A  118A  201E  120A  118A  	fcall	___flmul
  1191     07A5  1283               	bcf	3,5	;RP0=0, select bank0
  1192     07A6  1303               	bcf	3,6	;RP1=0, select bank0
  1193     07A7  0829               	movf	?___flmul+3,w
  1194     07A8  00C7               	movwf	___fladd@a+3
  1195     07A9  0828               	movf	?___flmul+2,w
  1196     07AA  00C6               	movwf	___fladd@a+2
  1197     07AB  0827               	movf	?___flmul+1,w
  1198     07AC  00C5               	movwf	___fladd@a+1
  1199     07AD  0826               	movf	?___flmul,w
  1200     07AE  00C4               	movwf	___fladd@a
  1201     07AF  3040               	movlw	64
  1202     07B0  00C3               	movwf	___fladd@b+3
  1203     07B1  30E0               	movlw	224
  1204     07B2  00C2               	movwf	___fladd@b+2
  1205     07B3  3000               	movlw	0
  1206     07B4  00C1               	movwf	___fladd@b+1
  1207     07B5  3000               	movlw	0
  1208     07B6  00C0               	movwf	___fladd@b
  1209     07B7  120A  118A  2363  120A  118A  	fcall	___fladd
  1210     07BC  1283               	bcf	3,5	;RP0=0, select bank0
  1211     07BD  1303               	bcf	3,6	;RP1=0, select bank0
  1212     07BE  0843               	movf	?___fladd+3,w
  1213     07BF  00D7               	movwf	___fltol@f1+3
  1214     07C0  0842               	movf	?___fladd+2,w
  1215     07C1  00D6               	movwf	___fltol@f1+2
  1216     07C2  0841               	movf	?___fladd+1,w
  1217     07C3  00D5               	movwf	___fltol@f1+1
  1218     07C4  0840               	movf	?___fladd,w
  1219     07C5  00D4               	movwf	___fltol@f1
  1220     07C6  120A  118A  2705  120A  118A  	fcall	___fltol
  1221     07CB  1283               	bcf	3,5	;RP0=0, select bank0
  1222     07CC  1303               	bcf	3,6	;RP1=0, select bank0
  1223     07CD  0855               	movf	?___fltol+1,w
  1224     07CE  00E3               	movwf	_SERVO+1
  1225     07CF  0854               	movf	?___fltol,w
  1226     07D0  00E2               	movwf	_SERVO
  1227     07D1                     l123:
  1228     07D1  0008               	return
  1229     07D2                     __end_of_convertir:
  1230                           
  1231                           	psect	text5
  1232     05BB                     __ptext5:	
  1233 ;; *************** function ___xxtofl *****************
  1234 ;; Defined at:
  1235 ;;		line 10 in file "C:\Program Files\Microchip\xc8\v2.40\pic\sources\c90\common\xxtofl.c"
  1236 ;; Parameters:    Size  Location     Type
  1237 ;;  sign            1    wreg     unsigned char 
  1238 ;;  val             4    3[COMMON] long 
  1239 ;; Auto vars:     Size  Location     Type
  1240 ;;  sign            1    0[BANK0 ] unsigned char 
  1241 ;;  arg             4    2[BANK0 ] unsigned long 
  1242 ;;  exp             1    1[BANK0 ] unsigned char 
  1243 ;; Return value:  Size  Location     Type
  1244 ;;                  4    3[COMMON] unsigned char 
  1245 ;; Registers used:
  1246 ;;		wreg, status,2, status,0
  1247 ;; Tracked objects:
  1248 ;;		On entry : 0/0
  1249 ;;		On exit  : 0/0
  1250 ;;		Unchanged: 0/0
  1251 ;; Data sizes:     COMMON   BANK0   BANK1   BANK3   BANK2
  1252 ;;      Params:         4       0       0       0       0
  1253 ;;      Locals:         0       6       0       0       0
  1254 ;;      Temps:          4       0       0       0       0
  1255 ;;      Totals:         8       6       0       0       0
  1256 ;;Total ram usage:       14 bytes
  1257 ;; Hardware stack levels used: 1
  1258 ;; Hardware stack levels required when called: 1
  1259 ;; This function calls:
  1260 ;;		Nothing
  1261 ;; This function is called by:
  1262 ;;		_convertir
  1263 ;; This function uses a non-reentrant model
  1264 ;;
  1265                           
  1266     05BB                     ___xxtofl:	
  1267                           ;psect for function ___xxtofl
  1268                           
  1269                           
  1270                           ;incstack = 0
  1271                           ; Regs used in ___xxtofl: [wreg+status,2+status,0]
  1272                           ;___xxtofl@sign stored from wreg
  1273     05BB  1283               	bcf	3,5	;RP0=0, select bank0
  1274     05BC  1303               	bcf	3,6	;RP1=0, select bank0
  1275     05BD  00A0               	movwf	___xxtofl@sign
  1276     05BE                     l1639:
  1277     05BE  0820               	movf	___xxtofl@sign,w
  1278     05BF  1903               	btfsc	3,2
  1279     05C0  2DC2               	goto	u2141
  1280     05C1  2DC3               	goto	u2140
  1281     05C2                     u2141:
  1282     05C2  2DD7               	goto	l1645
  1283     05C3                     u2140:
  1284     05C3                     l1641:
  1285     05C3  1FF6               	btfss	___xxtofl@val+3,7
  1286     05C4  2DC6               	goto	u2151
  1287     05C5  2DC7               	goto	u2150
  1288     05C6                     u2151:
  1289     05C6  2DD7               	goto	l1645
  1290     05C7                     u2150:
  1291     05C7                     l1643:
  1292     05C7  0973               	comf	___xxtofl@val,w
  1293     05C8  00A2               	movwf	___xxtofl@arg
  1294     05C9  0974               	comf	___xxtofl@val+1,w
  1295     05CA  00A3               	movwf	___xxtofl@arg+1
  1296     05CB  0975               	comf	___xxtofl@val+2,w
  1297     05CC  00A4               	movwf	___xxtofl@arg+2
  1298     05CD  0976               	comf	___xxtofl@val+3,w
  1299     05CE  00A5               	movwf	___xxtofl@arg+3
  1300     05CF  0AA2               	incf	___xxtofl@arg,f
  1301     05D0  1903               	skipnz
  1302     05D1  0AA3               	incf	___xxtofl@arg+1,f
  1303     05D2  1903               	skipnz
  1304     05D3  0AA4               	incf	___xxtofl@arg+2,f
  1305     05D4  1903               	skipnz
  1306     05D5  0AA5               	incf	___xxtofl@arg+3,f
  1307     05D6  2DDF               	goto	l642
  1308     05D7                     l1645:
  1309     05D7  0876               	movf	___xxtofl@val+3,w
  1310     05D8  00A5               	movwf	___xxtofl@arg+3
  1311     05D9  0875               	movf	___xxtofl@val+2,w
  1312     05DA  00A4               	movwf	___xxtofl@arg+2
  1313     05DB  0874               	movf	___xxtofl@val+1,w
  1314     05DC  00A3               	movwf	___xxtofl@arg+1
  1315     05DD  0873               	movf	___xxtofl@val,w
  1316     05DE  00A2               	movwf	___xxtofl@arg
  1317     05DF                     l642:
  1318     05DF  0876               	movf	___xxtofl@val+3,w
  1319     05E0  0475               	iorwf	___xxtofl@val+2,w
  1320     05E1  0474               	iorwf	___xxtofl@val+1,w
  1321     05E2  0473               	iorwf	___xxtofl@val,w
  1322     05E3  1D03               	skipz
  1323     05E4  2DE6               	goto	u2161
  1324     05E5  2DE7               	goto	u2160
  1325     05E6                     u2161:
  1326     05E6  2DF0               	goto	l1651
  1327     05E7                     u2160:
  1328     05E7                     l1647:
  1329     05E7  3000               	movlw	0
  1330     05E8  00F6               	movwf	?___xxtofl+3
  1331     05E9  3000               	movlw	0
  1332     05EA  00F5               	movwf	?___xxtofl+2
  1333     05EB  3000               	movlw	0
  1334     05EC  00F4               	movwf	?___xxtofl+1
  1335     05ED  3000               	movlw	0
  1336     05EE  00F3               	movwf	?___xxtofl
  1337     05EF  2E74               	goto	l644
  1338     05F0                     l1651:
  1339     05F0  3096               	movlw	150
  1340     05F1  00A1               	movwf	___xxtofl@exp
  1341     05F2  2E00               	goto	l1655
  1342     05F3                     l1653:
  1343     05F3  3001               	movlw	1
  1344     05F4  00F7               	movwf	??___xxtofl
  1345     05F5  0877               	movf	??___xxtofl,w
  1346     05F6  07A1               	addwf	___xxtofl@exp,f
  1347     05F7  3001               	movlw	1
  1348     05F8                     u2175:
  1349     05F8  1003               	clrc
  1350     05F9  0CA5               	rrf	___xxtofl@arg+3,f
  1351     05FA  0CA4               	rrf	___xxtofl@arg+2,f
  1352     05FB  0CA3               	rrf	___xxtofl@arg+1,f
  1353     05FC  0CA2               	rrf	___xxtofl@arg,f
  1354     05FD  3EFF               	addlw	-1
  1355     05FE  1D03               	skipz
  1356     05FF  2DF8               	goto	u2175
  1357     0600                     l1655:
  1358     0600  30FE               	movlw	254
  1359     0601  0525               	andwf	___xxtofl@arg+3,w
  1360     0602  1D03               	btfss	3,2
  1361     0603  2E05               	goto	u2181
  1362     0604  2E06               	goto	u2180
  1363     0605                     u2181:
  1364     0605  2DF3               	goto	l1653
  1365     0606                     u2180:
  1366     0606  2E22               	goto	l648
  1367     0607                     l1657:
  1368     0607  3001               	movlw	1
  1369     0608  00F7               	movwf	??___xxtofl
  1370     0609  0877               	movf	??___xxtofl,w
  1371     060A  07A1               	addwf	___xxtofl@exp,f
  1372     060B                     l1659:
  1373     060B  3001               	movlw	1
  1374     060C  07A2               	addwf	___xxtofl@arg,f
  1375     060D  3000               	movlw	0
  1376     060E  1803               	skipnc
  1377     060F  3001               	movlw	1
  1378     0610  07A3               	addwf	___xxtofl@arg+1,f
  1379     0611  3000               	movlw	0
  1380     0612  1803               	skipnc
  1381     0613  3001               	movlw	1
  1382     0614  07A4               	addwf	___xxtofl@arg+2,f
  1383     0615  3000               	movlw	0
  1384     0616  1803               	skipnc
  1385     0617  3001               	movlw	1
  1386     0618  07A5               	addwf	___xxtofl@arg+3,f
  1387     0619                     l1661:
  1388     0619  3001               	movlw	1
  1389     061A                     u2195:
  1390     061A  1003               	clrc
  1391     061B  0CA5               	rrf	___xxtofl@arg+3,f
  1392     061C  0CA4               	rrf	___xxtofl@arg+2,f
  1393     061D  0CA3               	rrf	___xxtofl@arg+1,f
  1394     061E  0CA2               	rrf	___xxtofl@arg,f
  1395     061F  3EFF               	addlw	-1
  1396     0620  1D03               	skipz
  1397     0621  2E1A               	goto	u2195
  1398     0622                     l648:
  1399     0622  30FF               	movlw	255
  1400     0623  0525               	andwf	___xxtofl@arg+3,w
  1401     0624  1D03               	btfss	3,2
  1402     0625  2E27               	goto	u2201
  1403     0626  2E28               	goto	u2200
  1404     0627                     u2201:
  1405     0627  2E07               	goto	l1657
  1406     0628                     u2200:
  1407     0628  2E34               	goto	l1665
  1408     0629                     l1663:
  1409     0629  3001               	movlw	1
  1410     062A  02A1               	subwf	___xxtofl@exp,f
  1411     062B  3001               	movlw	1
  1412     062C  00F7               	movwf	??___xxtofl
  1413     062D                     u2215:
  1414     062D  1003               	clrc
  1415     062E  0DA2               	rlf	___xxtofl@arg,f
  1416     062F  0DA3               	rlf	___xxtofl@arg+1,f
  1417     0630  0DA4               	rlf	___xxtofl@arg+2,f
  1418     0631  0DA5               	rlf	___xxtofl@arg+3,f
  1419     0632  0BF7               	decfsz	??___xxtofl,f
  1420     0633  2E2D               	goto	u2215
  1421     0634                     l1665:
  1422     0634  1BA4               	btfsc	___xxtofl@arg+2,7
  1423     0635  2E37               	goto	u2221
  1424     0636  2E38               	goto	u2220
  1425     0637                     u2221:
  1426     0637  2E3E               	goto	l655
  1427     0638                     u2220:
  1428     0638                     l1667:
  1429     0638  3002               	movlw	2
  1430     0639  0221               	subwf	___xxtofl@exp,w
  1431     063A  1803               	skipnc
  1432     063B  2E3D               	goto	u2231
  1433     063C  2E3E               	goto	u2230
  1434     063D                     u2231:
  1435     063D  2E29               	goto	l1663
  1436     063E                     u2230:
  1437     063E                     l655:
  1438     063E  1821               	btfsc	___xxtofl@exp,0
  1439     063F  2E41               	goto	u2241
  1440     0640  2E42               	goto	u2240
  1441     0641                     u2241:
  1442     0641  2E4A               	goto	l656
  1443     0642                     u2240:
  1444     0642                     l1669:
  1445     0642  30FF               	movlw	255
  1446     0643  05A2               	andwf	___xxtofl@arg,f
  1447     0644  30FF               	movlw	255
  1448     0645  05A3               	andwf	___xxtofl@arg+1,f
  1449     0646  307F               	movlw	127
  1450     0647  05A4               	andwf	___xxtofl@arg+2,f
  1451     0648  30FF               	movlw	255
  1452     0649  05A5               	andwf	___xxtofl@arg+3,f
  1453     064A                     l656:
  1454     064A  1003               	clrc
  1455     064B  0CA1               	rrf	___xxtofl@exp,f
  1456     064C                     l1671:
  1457     064C  0821               	movf	___xxtofl@exp,w
  1458     064D  00F7               	movwf	??___xxtofl
  1459     064E  01F8               	clrf	??___xxtofl+1
  1460     064F  01F9               	clrf	??___xxtofl+2
  1461     0650  01FA               	clrf	??___xxtofl+3
  1462     0651  3018               	movlw	24
  1463     0652                     u2255:
  1464     0652  1003               	clrc
  1465     0653  0DF7               	rlf	??___xxtofl,f
  1466     0654  0DF8               	rlf	??___xxtofl+1,f
  1467     0655  0DF9               	rlf	??___xxtofl+2,f
  1468     0656  0DFA               	rlf	??___xxtofl+3,f
  1469     0657                     u2250:
  1470     0657  3EFF               	addlw	-1
  1471     0658  1D03               	skipz
  1472     0659  2E52               	goto	u2255
  1473     065A  0877               	movf	??___xxtofl,w
  1474     065B  04A2               	iorwf	___xxtofl@arg,f
  1475     065C  0878               	movf	??___xxtofl+1,w
  1476     065D  04A3               	iorwf	___xxtofl@arg+1,f
  1477     065E  0879               	movf	??___xxtofl+2,w
  1478     065F  04A4               	iorwf	___xxtofl@arg+2,f
  1479     0660  087A               	movf	??___xxtofl+3,w
  1480     0661  04A5               	iorwf	___xxtofl@arg+3,f
  1481     0662                     l1673:
  1482     0662  0820               	movf	___xxtofl@sign,w
  1483     0663  1903               	btfsc	3,2
  1484     0664  2E66               	goto	u2261
  1485     0665  2E67               	goto	u2260
  1486     0666                     u2261:
  1487     0666  2E6C               	goto	l1679
  1488     0667                     u2260:
  1489     0667                     l1675:
  1490     0667  1FF6               	btfss	___xxtofl@val+3,7
  1491     0668  2E6A               	goto	u2271
  1492     0669  2E6B               	goto	u2270
  1493     066A                     u2271:
  1494     066A  2E6C               	goto	l1679
  1495     066B                     u2270:
  1496     066B                     l1677:
  1497     066B  17A5               	bsf	___xxtofl@arg+3,7
  1498     066C                     l1679:
  1499     066C  0825               	movf	___xxtofl@arg+3,w
  1500     066D  00F6               	movwf	?___xxtofl+3
  1501     066E  0824               	movf	___xxtofl@arg+2,w
  1502     066F  00F5               	movwf	?___xxtofl+2
  1503     0670  0823               	movf	___xxtofl@arg+1,w
  1504     0671  00F4               	movwf	?___xxtofl+1
  1505     0672  0822               	movf	___xxtofl@arg,w
  1506     0673  00F3               	movwf	?___xxtofl
  1507     0674                     l644:
  1508     0674  0008               	return
  1509     0675                     __end_of___xxtofl:
  1510                           
  1511                           	psect	text6
  1512     0705                     __ptext6:	
  1513 ;; *************** function ___fltol *****************
  1514 ;; Defined at:
  1515 ;;		line 43 in file "C:\Program Files\Microchip\xc8\v2.40\pic\sources\c90\common\fltol.c"
  1516 ;; Parameters:    Size  Location     Type
  1517 ;;  f1              4   52[BANK0 ] unsigned char 
  1518 ;; Auto vars:     Size  Location     Type
  1519 ;;  exp1            1   61[BANK0 ] unsigned char 
  1520 ;;  sign1           1   60[BANK0 ] unsigned char 
  1521 ;; Return value:  Size  Location     Type
  1522 ;;                  4   52[BANK0 ] long 
  1523 ;; Registers used:
  1524 ;;		wreg, status,2, status,0
  1525 ;; Tracked objects:
  1526 ;;		On entry : 0/0
  1527 ;;		On exit  : 0/0
  1528 ;;		Unchanged: 0/0
  1529 ;; Data sizes:     COMMON   BANK0   BANK1   BANK3   BANK2
  1530 ;;      Params:         0       4       0       0       0
  1531 ;;      Locals:         0       2       0       0       0
  1532 ;;      Temps:          0       4       0       0       0
  1533 ;;      Totals:         0      10       0       0       0
  1534 ;;Total ram usage:       10 bytes
  1535 ;; Hardware stack levels used: 1
  1536 ;; Hardware stack levels required when called: 1
  1537 ;; This function calls:
  1538 ;;		Nothing
  1539 ;; This function is called by:
  1540 ;;		_convertir
  1541 ;; This function uses a non-reentrant model
  1542 ;;
  1543                           
  1544     0705                     ___fltol:	
  1545                           ;psect for function ___fltol
  1546                           
  1547     0705                     l1269:	
  1548                           ;incstack = 0
  1549                           ; Regs used in ___fltol: [wreg+status,2+status,0]
  1550                           
  1551     0705  1003               	clrc
  1552     0706  1283               	bcf	3,5	;RP0=0, select bank0
  1553     0707  1303               	bcf	3,6	;RP1=0, select bank0
  1554     0708  0D56               	rlf	___fltol@f1+2,w
  1555     0709  0D57               	rlf	___fltol@f1+3,w
  1556     070A  00DD               	movwf	___fltol@exp1
  1557     070B  085D               	movf	___fltol@exp1,w
  1558     070C  1D03               	btfss	3,2
  1559     070D  2F0F               	goto	u1211
  1560     070E  2F10               	goto	u1210
  1561     070F                     u1211:
  1562     070F  2F19               	goto	l1275
  1563     0710                     u1210:
  1564     0710                     l1271:
  1565     0710  3000               	movlw	0
  1566     0711  00D7               	movwf	?___fltol+3
  1567     0712  3000               	movlw	0
  1568     0713  00D6               	movwf	?___fltol+2
  1569     0714  3000               	movlw	0
  1570     0715  00D5               	movwf	?___fltol+1
  1571     0716  3000               	movlw	0
  1572     0717  00D4               	movwf	?___fltol
  1573     0718  2F7C               	goto	l395
  1574     0719                     l1275:
  1575     0719  0854               	movf	___fltol@f1,w
  1576     071A  00D8               	movwf	??___fltol
  1577     071B  0855               	movf	___fltol@f1+1,w
  1578     071C  00D9               	movwf	??___fltol+1
  1579     071D  0856               	movf	___fltol@f1+2,w
  1580     071E  00DA               	movwf	??___fltol+2
  1581     071F  0857               	movf	___fltol@f1+3,w
  1582     0720  00DB               	movwf	??___fltol+3
  1583     0721  301F               	movlw	31
  1584     0722                     u1225:
  1585     0722  1003               	clrc
  1586     0723  0CDB               	rrf	??___fltol+3,f
  1587     0724  0CDA               	rrf	??___fltol+2,f
  1588     0725  0CD9               	rrf	??___fltol+1,f
  1589     0726  0CD8               	rrf	??___fltol,f
  1590     0727                     u1220:
  1591     0727  3EFF               	addlw	-1
  1592     0728  1D03               	skipz
  1593     0729  2F22               	goto	u1225
  1594     072A  0858               	movf	??___fltol,w
  1595     072B  00DC               	movwf	___fltol@sign1
  1596     072C                     l1277:
  1597     072C  17D6               	bsf	___fltol@f1+2,7
  1598     072D                     l1279:
  1599     072D  30FF               	movlw	255
  1600     072E  05D4               	andwf	___fltol@f1,f
  1601     072F  30FF               	movlw	255
  1602     0730  05D5               	andwf	___fltol@f1+1,f
  1603     0731  30FF               	movlw	255
  1604     0732  05D6               	andwf	___fltol@f1+2,f
  1605     0733  3000               	movlw	0
  1606     0734  05D7               	andwf	___fltol@f1+3,f
  1607     0735                     l1281:
  1608     0735  3096               	movlw	150
  1609     0736  02DD               	subwf	___fltol@exp1,f
  1610     0737                     l1283:
  1611     0737  1FDD               	btfss	___fltol@exp1,7
  1612     0738  2F3A               	goto	u1231
  1613     0739  2F3B               	goto	u1230
  1614     073A                     u1231:
  1615     073A  2F55               	goto	l1293
  1616     073B                     u1230:
  1617     073B                     l1285:
  1618     073B  085D               	movf	___fltol@exp1,w
  1619     073C  3A80               	xorlw	128
  1620     073D  3E97               	addlw	151
  1621     073E  1803               	skipnc
  1622     073F  2F41               	goto	u1241
  1623     0740  2F42               	goto	u1240
  1624     0741                     u1241:
  1625     0741  2F43               	goto	l1291
  1626     0742                     u1240:
  1627     0742  2F10               	goto	l1271
  1628     0743                     l1291:
  1629     0743  3001               	movlw	1
  1630     0744                     u1255:
  1631     0744  1003               	clrc
  1632     0745  0CD7               	rrf	___fltol@f1+3,f
  1633     0746  0CD6               	rrf	___fltol@f1+2,f
  1634     0747  0CD5               	rrf	___fltol@f1+1,f
  1635     0748  0CD4               	rrf	___fltol@f1,f
  1636     0749  3EFF               	addlw	-1
  1637     074A  1D03               	skipz
  1638     074B  2F44               	goto	u1255
  1639     074C  3001               	movlw	1
  1640     074D  00D8               	movwf	??___fltol
  1641     074E  0858               	movf	??___fltol,w
  1642     074F  07DD               	addwf	___fltol@exp1,f
  1643     0750  1D03               	btfss	3,2
  1644     0751  2F53               	goto	u1261
  1645     0752  2F54               	goto	u1260
  1646     0753                     u1261:
  1647     0753  2F43               	goto	l1291
  1648     0754                     u1260:
  1649     0754  2F6C               	goto	l1301
  1650     0755                     l1293:
  1651     0755  3020               	movlw	32
  1652     0756  025D               	subwf	___fltol@exp1,w
  1653     0757  1C03               	skipc
  1654     0758  2F5A               	goto	u1271
  1655     0759  2F5B               	goto	u1270
  1656     075A                     u1271:
  1657     075A  2F67               	goto	l402
  1658     075B                     u1270:
  1659     075B  2F10               	goto	l1271
  1660     075C                     l1299:
  1661     075C  3001               	movlw	1
  1662     075D  00D8               	movwf	??___fltol
  1663     075E                     u1285:
  1664     075E  1003               	clrc
  1665     075F  0DD4               	rlf	___fltol@f1,f
  1666     0760  0DD5               	rlf	___fltol@f1+1,f
  1667     0761  0DD6               	rlf	___fltol@f1+2,f
  1668     0762  0DD7               	rlf	___fltol@f1+3,f
  1669     0763  0BD8               	decfsz	??___fltol,f
  1670     0764  2F5E               	goto	u1285
  1671     0765  3001               	movlw	1
  1672     0766  02DD               	subwf	___fltol@exp1,f
  1673     0767                     l402:
  1674     0767  085D               	movf	___fltol@exp1,w
  1675     0768  1D03               	btfss	3,2
  1676     0769  2F6B               	goto	u1291
  1677     076A  2F6C               	goto	u1290
  1678     076B                     u1291:
  1679     076B  2F5C               	goto	l1299
  1680     076C                     u1290:
  1681     076C                     l1301:
  1682     076C  085C               	movf	___fltol@sign1,w
  1683     076D  1903               	btfsc	3,2
  1684     076E  2F70               	goto	u1301
  1685     076F  2F71               	goto	u1300
  1686     0770                     u1301:
  1687     0770  2F7C               	goto	l405
  1688     0771                     u1300:
  1689     0771                     l1303:
  1690     0771  09D4               	comf	___fltol@f1,f
  1691     0772  09D5               	comf	___fltol@f1+1,f
  1692     0773  09D6               	comf	___fltol@f1+2,f
  1693     0774  09D7               	comf	___fltol@f1+3,f
  1694     0775  0AD4               	incf	___fltol@f1,f
  1695     0776  1903               	skipnz
  1696     0777  0AD5               	incf	___fltol@f1+1,f
  1697     0778  1903               	skipnz
  1698     0779  0AD6               	incf	___fltol@f1+2,f
  1699     077A  1903               	skipnz
  1700     077B  0AD7               	incf	___fltol@f1+3,f
  1701     077C                     l405:
  1702     077C                     l395:
  1703     077C  0008               	return
  1704     077D                     __end_of___fltol:
  1705                           
  1706                           	psect	text7
  1707     001E                     __ptext7:	
  1708 ;; *************** function ___flmul *****************
  1709 ;; Defined at:
  1710 ;;		line 8 in file "C:\Program Files\Microchip\xc8\v2.40\pic\sources\c90\common\sprcmul.c"
  1711 ;; Parameters:    Size  Location     Type
  1712 ;;  b               4    6[BANK0 ] long 
  1713 ;;  a               4   10[BANK0 ] long 
  1714 ;; Auto vars:     Size  Location     Type
  1715 ;;  prod            4   26[BANK0 ] struct .
  1716 ;;  grs             4   20[BANK0 ] unsigned long 
  1717 ;;  temp            2   30[BANK0 ] struct .
  1718 ;;  bexp            1   25[BANK0 ] unsigned char 
  1719 ;;  aexp            1   24[BANK0 ] unsigned char 
  1720 ;;  sign            1   19[BANK0 ] unsigned char 
  1721 ;; Return value:  Size  Location     Type
  1722 ;;                  4    6[BANK0 ] unsigned char 
  1723 ;; Registers used:
  1724 ;;		wreg, status,2, status,0, btemp+1, pclath, cstack
  1725 ;; Tracked objects:
  1726 ;;		On entry : 0/0
  1727 ;;		On exit  : 0/0
  1728 ;;		Unchanged: 0/0
  1729 ;; Data sizes:     COMMON   BANK0   BANK1   BANK3   BANK2
  1730 ;;      Params:         0       8       0       0       0
  1731 ;;      Locals:         0      13       0       0       0
  1732 ;;      Temps:          0       5       0       0       0
  1733 ;;      Totals:         0      26       0       0       0
  1734 ;;Total ram usage:       26 bytes
  1735 ;; Hardware stack levels used: 1
  1736 ;; Hardware stack levels required when called: 2
  1737 ;; This function calls:
  1738 ;;		__Umul8_16
  1739 ;; This function is called by:
  1740 ;;		_convertir
  1741 ;; This function uses a non-reentrant model
  1742 ;;
  1743                           
  1744     001E                     ___flmul:	
  1745                           ;psect for function ___flmul
  1746                           
  1747     001E                     l1499:	
  1748                           ;incstack = 0
  1749                           ; Regs used in ___flmul: [wreg+status,2+status,0+btemp+1+pclath+cstack]
  1750                           
  1751     001E  1283               	bcf	3,5	;RP0=0, select bank0
  1752     001F  1303               	bcf	3,6	;RP1=0, select bank0
  1753     0020  0829               	movf	___flmul@b+3,w
  1754     0021  3980               	andlw	128
  1755     0022  00B3               	movwf	___flmul@sign
  1756     0023                     l1501:
  1757     0023  0829               	movf	___flmul@b+3,w
  1758     0024  00AE               	movwf	??___flmul
  1759     0025  072E               	addwf	??___flmul,w
  1760     0026  00B9               	movwf	___flmul@bexp
  1761     0027                     l1503:
  1762     0027  1FA8               	btfss	___flmul@b+2,7
  1763     0028  282A               	goto	u1771
  1764     0029  282B               	goto	u1770
  1765     002A                     u1771:
  1766     002A  282C               	goto	l1507
  1767     002B                     u1770:
  1768     002B                     l1505:
  1769     002B  1439               	bsf	___flmul@bexp,0
  1770     002C                     l1507:
  1771     002C  0839               	movf	___flmul@bexp,w
  1772     002D  1903               	btfsc	3,2
  1773     002E  2830               	goto	u1781
  1774     002F  2831               	goto	u1780
  1775     0030                     u1781:
  1776     0030  2840               	goto	l1515
  1777     0031                     u1780:
  1778     0031                     l1509:
  1779     0031  0A39               	incf	___flmul@bexp,w
  1780     0032  1D03               	btfss	3,2
  1781     0033  2835               	goto	u1791
  1782     0034  2836               	goto	u1790
  1783     0035                     u1791:
  1784     0035  283E               	goto	l1513
  1785     0036                     u1790:
  1786     0036                     l1511:
  1787     0036  3000               	movlw	0
  1788     0037  00A9               	movwf	___flmul@b+3
  1789     0038  3000               	movlw	0
  1790     0039  00A8               	movwf	___flmul@b+2
  1791     003A  3000               	movlw	0
  1792     003B  00A7               	movwf	___flmul@b+1
  1793     003C  3000               	movlw	0
  1794     003D  00A6               	movwf	___flmul@b
  1795     003E                     l1513:
  1796     003E  17A8               	bsf	___flmul@b+2,7
  1797     003F  2848               	goto	l1517
  1798     0040                     l1515:
  1799     0040  3000               	movlw	0
  1800     0041  00A9               	movwf	___flmul@b+3
  1801     0042  3000               	movlw	0
  1802     0043  00A8               	movwf	___flmul@b+2
  1803     0044  3000               	movlw	0
  1804     0045  00A7               	movwf	___flmul@b+1
  1805     0046  3000               	movlw	0
  1806     0047  00A6               	movwf	___flmul@b
  1807     0048                     l1517:
  1808     0048  082D               	movf	___flmul@a+3,w
  1809     0049  3980               	andlw	128
  1810     004A  00AE               	movwf	??___flmul
  1811     004B  082E               	movf	??___flmul,w
  1812     004C  06B3               	xorwf	___flmul@sign,f
  1813     004D                     l1519:
  1814     004D  082D               	movf	___flmul@a+3,w
  1815     004E  00AE               	movwf	??___flmul
  1816     004F  072E               	addwf	??___flmul,w
  1817     0050  00B8               	movwf	___flmul@aexp
  1818     0051                     l1521:
  1819     0051  1FAC               	btfss	___flmul@a+2,7
  1820     0052  2854               	goto	u1801
  1821     0053  2855               	goto	u1800
  1822     0054                     u1801:
  1823     0054  2856               	goto	l1525
  1824     0055                     u1800:
  1825     0055                     l1523:
  1826     0055  1438               	bsf	___flmul@aexp,0
  1827     0056                     l1525:
  1828     0056  0838               	movf	___flmul@aexp,w
  1829     0057  1903               	btfsc	3,2
  1830     0058  285A               	goto	u1811
  1831     0059  285B               	goto	u1810
  1832     005A                     u1811:
  1833     005A  286A               	goto	l1533
  1834     005B                     u1810:
  1835     005B                     l1527:
  1836     005B  0A38               	incf	___flmul@aexp,w
  1837     005C  1D03               	btfss	3,2
  1838     005D  285F               	goto	u1821
  1839     005E  2860               	goto	u1820
  1840     005F                     u1821:
  1841     005F  2868               	goto	l1531
  1842     0060                     u1820:
  1843     0060                     l1529:
  1844     0060  3000               	movlw	0
  1845     0061  00AD               	movwf	___flmul@a+3
  1846     0062  3000               	movlw	0
  1847     0063  00AC               	movwf	___flmul@a+2
  1848     0064  3000               	movlw	0
  1849     0065  00AB               	movwf	___flmul@a+1
  1850     0066  3000               	movlw	0
  1851     0067  00AA               	movwf	___flmul@a
  1852     0068                     l1531:
  1853     0068  17AC               	bsf	___flmul@a+2,7
  1854     0069  2872               	goto	l1535
  1855     006A                     l1533:
  1856     006A  3000               	movlw	0
  1857     006B  00AD               	movwf	___flmul@a+3
  1858     006C  3000               	movlw	0
  1859     006D  00AC               	movwf	___flmul@a+2
  1860     006E  3000               	movlw	0
  1861     006F  00AB               	movwf	___flmul@a+1
  1862     0070  3000               	movlw	0
  1863     0071  00AA               	movwf	___flmul@a
  1864     0072                     l1535:
  1865     0072  0838               	movf	___flmul@aexp,w
  1866     0073  1903               	btfsc	3,2
  1867     0074  2876               	goto	u1831
  1868     0075  2877               	goto	u1830
  1869     0076                     u1831:
  1870     0076  287C               	goto	l1539
  1871     0077                     u1830:
  1872     0077                     l1537:
  1873     0077  0839               	movf	___flmul@bexp,w
  1874     0078  1D03               	btfss	3,2
  1875     0079  287B               	goto	u1841
  1876     007A  287C               	goto	u1840
  1877     007B                     u1841:
  1878     007B  2885               	goto	l1543
  1879     007C                     u1840:
  1880     007C                     l1539:
  1881     007C  3000               	movlw	0
  1882     007D  00A9               	movwf	?___flmul+3
  1883     007E  3000               	movlw	0
  1884     007F  00A8               	movwf	?___flmul+2
  1885     0080  3000               	movlw	0
  1886     0081  00A7               	movwf	?___flmul+1
  1887     0082  3000               	movlw	0
  1888     0083  00A6               	movwf	?___flmul
  1889     0084  2B62               	goto	l598
  1890     0085                     l1543:
  1891     0085  0826               	movf	___flmul@b,w
  1892     0086  00F3               	movwf	__Umul8_16@multiplicand
  1893     0087  082C               	movf	___flmul@a+2,w
  1894     0088  120A  158A  277E  120A  118A  	fcall	__Umul8_16
  1895     008D  0874               	movf	?__Umul8_16+1,w
  1896     008E  1283               	bcf	3,5	;RP0=0, select bank0
  1897     008F  1303               	bcf	3,6	;RP1=0, select bank0
  1898     0090  00BF               	movwf	___flmul@temp+1
  1899     0091  0873               	movf	?__Umul8_16,w
  1900     0092  00BE               	movwf	___flmul@temp
  1901     0093                     l1545:
  1902     0093  083E               	movf	___flmul@temp,w
  1903     0094  00AE               	movwf	??___flmul
  1904     0095  01AF               	clrf	??___flmul+1
  1905     0096  01B0               	clrf	??___flmul+2
  1906     0097  01B1               	clrf	??___flmul+3
  1907     0098  0831               	movf	??___flmul+3,w
  1908     0099  00B7               	movwf	___flmul@grs+3
  1909     009A  0830               	movf	??___flmul+2,w
  1910     009B  00B6               	movwf	___flmul@grs+2
  1911     009C  082F               	movf	??___flmul+1,w
  1912     009D  00B5               	movwf	___flmul@grs+1
  1913     009E  082E               	movf	??___flmul,w
  1914     009F  00B4               	movwf	___flmul@grs
  1915     00A0                     l1547:
  1916     00A0  083F               	movf	___flmul@temp+1,w
  1917     00A1  00AE               	movwf	??___flmul
  1918     00A2  01AF               	clrf	??___flmul+1
  1919     00A3  01B0               	clrf	??___flmul+2
  1920     00A4  01B1               	clrf	??___flmul+3
  1921     00A5  0831               	movf	??___flmul+3,w
  1922     00A6  00BD               	movwf	___flmul@prod+3
  1923     00A7  0830               	movf	??___flmul+2,w
  1924     00A8  00BC               	movwf	___flmul@prod+2
  1925     00A9  082F               	movf	??___flmul+1,w
  1926     00AA  00BB               	movwf	___flmul@prod+1
  1927     00AB  082E               	movf	??___flmul,w
  1928     00AC  00BA               	movwf	___flmul@prod
  1929     00AD  0827               	movf	___flmul@b+1,w
  1930     00AE  00F3               	movwf	__Umul8_16@multiplicand
  1931     00AF  082B               	movf	___flmul@a+1,w
  1932     00B0  120A  158A  277E  120A  118A  	fcall	__Umul8_16
  1933     00B5  0874               	movf	?__Umul8_16+1,w
  1934     00B6  1283               	bcf	3,5	;RP0=0, select bank0
  1935     00B7  1303               	bcf	3,6	;RP1=0, select bank0
  1936     00B8  00BF               	movwf	___flmul@temp+1
  1937     00B9  0873               	movf	?__Umul8_16,w
  1938     00BA  00BE               	movwf	___flmul@temp
  1939     00BB                     l1549:
  1940     00BB  083E               	movf	___flmul@temp,w
  1941     00BC  00AE               	movwf	??___flmul
  1942     00BD  01AF               	clrf	??___flmul+1
  1943     00BE  01B0               	clrf	??___flmul+2
  1944     00BF  01B1               	clrf	??___flmul+3
  1945     00C0  082E               	movf	??___flmul,w
  1946     00C1  07B4               	addwf	___flmul@grs,f
  1947     00C2  082F               	movf	??___flmul+1,w
  1948     00C3  1103               	clrz
  1949     00C4  1803               	skipnc
  1950     00C5  3E01               	addlw	1
  1951     00C6  1903               	skipnz
  1952     00C7  28C9               	goto	u1851
  1953     00C8  07B5               	addwf	___flmul@grs+1,f
  1954     00C9                     u1851:
  1955     00C9  0830               	movf	??___flmul+2,w
  1956     00CA  1103               	clrz
  1957     00CB  1803               	skipnc
  1958     00CC  3E01               	addlw	1
  1959     00CD  1903               	skipnz
  1960     00CE  28D0               	goto	u1852
  1961     00CF  07B6               	addwf	___flmul@grs+2,f
  1962     00D0                     u1852:
  1963     00D0  0831               	movf	??___flmul+3,w
  1964     00D1  1103               	clrz
  1965     00D2  1803               	skipnc
  1966     00D3  3E01               	addlw	1
  1967     00D4  1903               	skipnz
  1968     00D5  28D7               	goto	u1853
  1969     00D6  07B7               	addwf	___flmul@grs+3,f
  1970     00D7                     u1853:
  1971     00D7                     l1551:
  1972     00D7  083F               	movf	___flmul@temp+1,w
  1973     00D8  00AE               	movwf	??___flmul
  1974     00D9  01AF               	clrf	??___flmul+1
  1975     00DA  01B0               	clrf	??___flmul+2
  1976     00DB  01B1               	clrf	??___flmul+3
  1977     00DC  082E               	movf	??___flmul,w
  1978     00DD  07BA               	addwf	___flmul@prod,f
  1979     00DE  082F               	movf	??___flmul+1,w
  1980     00DF  1103               	clrz
  1981     00E0  1803               	skipnc
  1982     00E1  3E01               	addlw	1
  1983     00E2  1903               	skipnz
  1984     00E3  28E5               	goto	u1861
  1985     00E4  07BB               	addwf	___flmul@prod+1,f
  1986     00E5                     u1861:
  1987     00E5  0830               	movf	??___flmul+2,w
  1988     00E6  1103               	clrz
  1989     00E7  1803               	skipnc
  1990     00E8  3E01               	addlw	1
  1991     00E9  1903               	skipnz
  1992     00EA  28EC               	goto	u1862
  1993     00EB  07BC               	addwf	___flmul@prod+2,f
  1994     00EC                     u1862:
  1995     00EC  0831               	movf	??___flmul+3,w
  1996     00ED  1103               	clrz
  1997     00EE  1803               	skipnc
  1998     00EF  3E01               	addlw	1
  1999     00F0  1903               	skipnz
  2000     00F1  28F3               	goto	u1863
  2001     00F2  07BD               	addwf	___flmul@prod+3,f
  2002     00F3                     u1863:
  2003     00F3  0828               	movf	___flmul@b+2,w
  2004     00F4  00F3               	movwf	__Umul8_16@multiplicand
  2005     00F5  082A               	movf	___flmul@a,w
  2006     00F6  120A  158A  277E  120A  118A  	fcall	__Umul8_16
  2007     00FB  0874               	movf	?__Umul8_16+1,w
  2008     00FC  1283               	bcf	3,5	;RP0=0, select bank0
  2009     00FD  1303               	bcf	3,6	;RP1=0, select bank0
  2010     00FE  00BF               	movwf	___flmul@temp+1
  2011     00FF  0873               	movf	?__Umul8_16,w
  2012     0100  00BE               	movwf	___flmul@temp
  2013     0101                     l1553:
  2014     0101  083E               	movf	___flmul@temp,w
  2015     0102  00AE               	movwf	??___flmul
  2016     0103  01AF               	clrf	??___flmul+1
  2017     0104  01B0               	clrf	??___flmul+2
  2018     0105  01B1               	clrf	??___flmul+3
  2019     0106  082E               	movf	??___flmul,w
  2020     0107  07B4               	addwf	___flmul@grs,f
  2021     0108  082F               	movf	??___flmul+1,w
  2022     0109  1103               	clrz
  2023     010A  1803               	skipnc
  2024     010B  3E01               	addlw	1
  2025     010C  1903               	skipnz
  2026     010D  290F               	goto	u1871
  2027     010E  07B5               	addwf	___flmul@grs+1,f
  2028     010F                     u1871:
  2029     010F  0830               	movf	??___flmul+2,w
  2030     0110  1103               	clrz
  2031     0111  1803               	skipnc
  2032     0112  3E01               	addlw	1
  2033     0113  1903               	skipnz
  2034     0114  2916               	goto	u1872
  2035     0115  07B6               	addwf	___flmul@grs+2,f
  2036     0116                     u1872:
  2037     0116  0831               	movf	??___flmul+3,w
  2038     0117  1103               	clrz
  2039     0118  1803               	skipnc
  2040     0119  3E01               	addlw	1
  2041     011A  1903               	skipnz
  2042     011B  291D               	goto	u1873
  2043     011C  07B7               	addwf	___flmul@grs+3,f
  2044     011D                     u1873:
  2045     011D                     l1555:
  2046     011D  083F               	movf	___flmul@temp+1,w
  2047     011E  00AE               	movwf	??___flmul
  2048     011F  01AF               	clrf	??___flmul+1
  2049     0120  01B0               	clrf	??___flmul+2
  2050     0121  01B1               	clrf	??___flmul+3
  2051     0122  082E               	movf	??___flmul,w
  2052     0123  07BA               	addwf	___flmul@prod,f
  2053     0124  082F               	movf	??___flmul+1,w
  2054     0125  1103               	clrz
  2055     0126  1803               	skipnc
  2056     0127  3E01               	addlw	1
  2057     0128  1903               	skipnz
  2058     0129  292B               	goto	u1881
  2059     012A  07BB               	addwf	___flmul@prod+1,f
  2060     012B                     u1881:
  2061     012B  0830               	movf	??___flmul+2,w
  2062     012C  1103               	clrz
  2063     012D  1803               	skipnc
  2064     012E  3E01               	addlw	1
  2065     012F  1903               	skipnz
  2066     0130  2932               	goto	u1882
  2067     0131  07BC               	addwf	___flmul@prod+2,f
  2068     0132                     u1882:
  2069     0132  0831               	movf	??___flmul+3,w
  2070     0133  1103               	clrz
  2071     0134  1803               	skipnc
  2072     0135  3E01               	addlw	1
  2073     0136  1903               	skipnz
  2074     0137  2939               	goto	u1883
  2075     0138  07BD               	addwf	___flmul@prod+3,f
  2076     0139                     u1883:
  2077     0139                     l1557:
  2078     0139  3008               	movlw	8
  2079     013A  00AE               	movwf	??___flmul
  2080     013B                     u1895:
  2081     013B  1003               	clrc
  2082     013C  0DB4               	rlf	___flmul@grs,f
  2083     013D  0DB5               	rlf	___flmul@grs+1,f
  2084     013E  0DB6               	rlf	___flmul@grs+2,f
  2085     013F  0DB7               	rlf	___flmul@grs+3,f
  2086     0140  0BAE               	decfsz	??___flmul,f
  2087     0141  293B               	goto	u1895
  2088     0142                     l1559:
  2089     0142  0827               	movf	___flmul@b+1,w
  2090     0143  00F3               	movwf	__Umul8_16@multiplicand
  2091     0144  082A               	movf	___flmul@a,w
  2092     0145  120A  158A  277E  120A  118A  	fcall	__Umul8_16
  2093     014A  0874               	movf	?__Umul8_16+1,w
  2094     014B  1283               	bcf	3,5	;RP0=0, select bank0
  2095     014C  1303               	bcf	3,6	;RP1=0, select bank0
  2096     014D  00BF               	movwf	___flmul@temp+1
  2097     014E  0873               	movf	?__Umul8_16,w
  2098     014F  00BE               	movwf	___flmul@temp
  2099     0150                     l1561:
  2100     0150  083E               	movf	___flmul@temp,w
  2101     0151  00AE               	movwf	??___flmul
  2102     0152  083F               	movf	___flmul@temp+1,w
  2103     0153  00AF               	movwf	??___flmul+1
  2104     0154  01B0               	clrf	??___flmul+2
  2105     0155  01B1               	clrf	??___flmul+3
  2106     0156  082E               	movf	??___flmul,w
  2107     0157  07B4               	addwf	___flmul@grs,f
  2108     0158  082F               	movf	??___flmul+1,w
  2109     0159  1103               	clrz
  2110     015A  1803               	skipnc
  2111     015B  3E01               	addlw	1
  2112     015C  1903               	skipnz
  2113     015D  295F               	goto	u1901
  2114     015E  07B5               	addwf	___flmul@grs+1,f
  2115     015F                     u1901:
  2116     015F  0830               	movf	??___flmul+2,w
  2117     0160  1103               	clrz
  2118     0161  1803               	skipnc
  2119     0162  3E01               	addlw	1
  2120     0163  1903               	skipnz
  2121     0164  2966               	goto	u1902
  2122     0165  07B6               	addwf	___flmul@grs+2,f
  2123     0166                     u1902:
  2124     0166  0831               	movf	??___flmul+3,w
  2125     0167  1103               	clrz
  2126     0168  1803               	skipnc
  2127     0169  3E01               	addlw	1
  2128     016A  1903               	skipnz
  2129     016B  296D               	goto	u1903
  2130     016C  07B7               	addwf	___flmul@grs+3,f
  2131     016D                     u1903:
  2132     016D                     l1563:
  2133     016D  0826               	movf	___flmul@b,w
  2134     016E  00F3               	movwf	__Umul8_16@multiplicand
  2135     016F  082B               	movf	___flmul@a+1,w
  2136     0170  120A  158A  277E  120A  118A  	fcall	__Umul8_16
  2137     0175  0874               	movf	?__Umul8_16+1,w
  2138     0176  1283               	bcf	3,5	;RP0=0, select bank0
  2139     0177  1303               	bcf	3,6	;RP1=0, select bank0
  2140     0178  00BF               	movwf	___flmul@temp+1
  2141     0179  0873               	movf	?__Umul8_16,w
  2142     017A  00BE               	movwf	___flmul@temp
  2143     017B                     l1565:
  2144     017B  083E               	movf	___flmul@temp,w
  2145     017C  00AE               	movwf	??___flmul
  2146     017D  083F               	movf	___flmul@temp+1,w
  2147     017E  00AF               	movwf	??___flmul+1
  2148     017F  01B0               	clrf	??___flmul+2
  2149     0180  01B1               	clrf	??___flmul+3
  2150     0181  082E               	movf	??___flmul,w
  2151     0182  07B4               	addwf	___flmul@grs,f
  2152     0183  082F               	movf	??___flmul+1,w
  2153     0184  1103               	clrz
  2154     0185  1803               	skipnc
  2155     0186  3E01               	addlw	1
  2156     0187  1903               	skipnz
  2157     0188  298A               	goto	u1911
  2158     0189  07B5               	addwf	___flmul@grs+1,f
  2159     018A                     u1911:
  2160     018A  0830               	movf	??___flmul+2,w
  2161     018B  1103               	clrz
  2162     018C  1803               	skipnc
  2163     018D  3E01               	addlw	1
  2164     018E  1903               	skipnz
  2165     018F  2991               	goto	u1912
  2166     0190  07B6               	addwf	___flmul@grs+2,f
  2167     0191                     u1912:
  2168     0191  0831               	movf	??___flmul+3,w
  2169     0192  1103               	clrz
  2170     0193  1803               	skipnc
  2171     0194  3E01               	addlw	1
  2172     0195  1903               	skipnz
  2173     0196  2998               	goto	u1913
  2174     0197  07B7               	addwf	___flmul@grs+3,f
  2175     0198                     u1913:
  2176     0198                     l1567:
  2177     0198  3008               	movlw	8
  2178     0199  00AE               	movwf	??___flmul
  2179     019A                     u1925:
  2180     019A  1003               	clrc
  2181     019B  0DB4               	rlf	___flmul@grs,f
  2182     019C  0DB5               	rlf	___flmul@grs+1,f
  2183     019D  0DB6               	rlf	___flmul@grs+2,f
  2184     019E  0DB7               	rlf	___flmul@grs+3,f
  2185     019F  0BAE               	decfsz	??___flmul,f
  2186     01A0  299A               	goto	u1925
  2187     01A1  0826               	movf	___flmul@b,w
  2188     01A2  00F3               	movwf	__Umul8_16@multiplicand
  2189     01A3  082A               	movf	___flmul@a,w
  2190     01A4  120A  158A  277E  120A  118A  	fcall	__Umul8_16
  2191     01A9  0874               	movf	?__Umul8_16+1,w
  2192     01AA  1283               	bcf	3,5	;RP0=0, select bank0
  2193     01AB  1303               	bcf	3,6	;RP1=0, select bank0
  2194     01AC  00BF               	movwf	___flmul@temp+1
  2195     01AD  0873               	movf	?__Umul8_16,w
  2196     01AE  00BE               	movwf	___flmul@temp
  2197     01AF                     l1569:
  2198     01AF  083E               	movf	___flmul@temp,w
  2199     01B0  00AE               	movwf	??___flmul
  2200     01B1  083F               	movf	___flmul@temp+1,w
  2201     01B2  00AF               	movwf	??___flmul+1
  2202     01B3  01B0               	clrf	??___flmul+2
  2203     01B4  01B1               	clrf	??___flmul+3
  2204     01B5  082E               	movf	??___flmul,w
  2205     01B6  07B4               	addwf	___flmul@grs,f
  2206     01B7  082F               	movf	??___flmul+1,w
  2207     01B8  1103               	clrz
  2208     01B9  1803               	skipnc
  2209     01BA  3E01               	addlw	1
  2210     01BB  1903               	skipnz
  2211     01BC  29BE               	goto	u1931
  2212     01BD  07B5               	addwf	___flmul@grs+1,f
  2213     01BE                     u1931:
  2214     01BE  0830               	movf	??___flmul+2,w
  2215     01BF  1103               	clrz
  2216     01C0  1803               	skipnc
  2217     01C1  3E01               	addlw	1
  2218     01C2  1903               	skipnz
  2219     01C3  29C5               	goto	u1932
  2220     01C4  07B6               	addwf	___flmul@grs+2,f
  2221     01C5                     u1932:
  2222     01C5  0831               	movf	??___flmul+3,w
  2223     01C6  1103               	clrz
  2224     01C7  1803               	skipnc
  2225     01C8  3E01               	addlw	1
  2226     01C9  1903               	skipnz
  2227     01CA  29CC               	goto	u1933
  2228     01CB  07B7               	addwf	___flmul@grs+3,f
  2229     01CC                     u1933:
  2230     01CC                     l1571:
  2231     01CC  0827               	movf	___flmul@b+1,w
  2232     01CD  00F3               	movwf	__Umul8_16@multiplicand
  2233     01CE  082C               	movf	___flmul@a+2,w
  2234     01CF  120A  158A  277E  120A  118A  	fcall	__Umul8_16
  2235     01D4  0874               	movf	?__Umul8_16+1,w
  2236     01D5  1283               	bcf	3,5	;RP0=0, select bank0
  2237     01D6  1303               	bcf	3,6	;RP1=0, select bank0
  2238     01D7  00BF               	movwf	___flmul@temp+1
  2239     01D8  0873               	movf	?__Umul8_16,w
  2240     01D9  00BE               	movwf	___flmul@temp
  2241     01DA  083E               	movf	___flmul@temp,w
  2242     01DB  00AE               	movwf	??___flmul
  2243     01DC  083F               	movf	___flmul@temp+1,w
  2244     01DD  00AF               	movwf	??___flmul+1
  2245     01DE  01B0               	clrf	??___flmul+2
  2246     01DF  01B1               	clrf	??___flmul+3
  2247     01E0  082E               	movf	??___flmul,w
  2248     01E1  07BA               	addwf	___flmul@prod,f
  2249     01E2  082F               	movf	??___flmul+1,w
  2250     01E3  1103               	clrz
  2251     01E4  1803               	skipnc
  2252     01E5  3E01               	addlw	1
  2253     01E6  1903               	skipnz
  2254     01E7  29E9               	goto	u1941
  2255     01E8  07BB               	addwf	___flmul@prod+1,f
  2256     01E9                     u1941:
  2257     01E9  0830               	movf	??___flmul+2,w
  2258     01EA  1103               	clrz
  2259     01EB  1803               	skipnc
  2260     01EC  3E01               	addlw	1
  2261     01ED  1903               	skipnz
  2262     01EE  29F0               	goto	u1942
  2263     01EF  07BC               	addwf	___flmul@prod+2,f
  2264     01F0                     u1942:
  2265     01F0  0831               	movf	??___flmul+3,w
  2266     01F1  1103               	clrz
  2267     01F2  1803               	skipnc
  2268     01F3  3E01               	addlw	1
  2269     01F4  1903               	skipnz
  2270     01F5  29F7               	goto	u1943
  2271     01F6  07BD               	addwf	___flmul@prod+3,f
  2272     01F7                     u1943:
  2273     01F7                     l1573:
  2274     01F7  0828               	movf	___flmul@b+2,w
  2275     01F8  00F3               	movwf	__Umul8_16@multiplicand
  2276     01F9  082B               	movf	___flmul@a+1,w
  2277     01FA  120A  158A  277E  120A  118A  	fcall	__Umul8_16
  2278     01FF  0874               	movf	?__Umul8_16+1,w
  2279     0200  1283               	bcf	3,5	;RP0=0, select bank0
  2280     0201  1303               	bcf	3,6	;RP1=0, select bank0
  2281     0202  00BF               	movwf	___flmul@temp+1
  2282     0203  0873               	movf	?__Umul8_16,w
  2283     0204  00BE               	movwf	___flmul@temp
  2284     0205                     l1575:
  2285     0205  083E               	movf	___flmul@temp,w
  2286     0206  00AE               	movwf	??___flmul
  2287     0207  083F               	movf	___flmul@temp+1,w
  2288     0208  00AF               	movwf	??___flmul+1
  2289     0209  01B0               	clrf	??___flmul+2
  2290     020A  01B1               	clrf	??___flmul+3
  2291     020B  082E               	movf	??___flmul,w
  2292     020C  07BA               	addwf	___flmul@prod,f
  2293     020D  082F               	movf	??___flmul+1,w
  2294     020E  1103               	clrz
  2295     020F  1803               	skipnc
  2296     0210  3E01               	addlw	1
  2297     0211  1903               	skipnz
  2298     0212  2A14               	goto	u1951
  2299     0213  07BB               	addwf	___flmul@prod+1,f
  2300     0214                     u1951:
  2301     0214  0830               	movf	??___flmul+2,w
  2302     0215  1103               	clrz
  2303     0216  1803               	skipnc
  2304     0217  3E01               	addlw	1
  2305     0218  1903               	skipnz
  2306     0219  2A1B               	goto	u1952
  2307     021A  07BC               	addwf	___flmul@prod+2,f
  2308     021B                     u1952:
  2309     021B  0831               	movf	??___flmul+3,w
  2310     021C  1103               	clrz
  2311     021D  1803               	skipnc
  2312     021E  3E01               	addlw	1
  2313     021F  1903               	skipnz
  2314     0220  2A22               	goto	u1953
  2315     0221  07BD               	addwf	___flmul@prod+3,f
  2316     0222                     u1953:
  2317     0222  0828               	movf	___flmul@b+2,w
  2318     0223  00F3               	movwf	__Umul8_16@multiplicand
  2319     0224  082C               	movf	___flmul@a+2,w
  2320     0225  120A  158A  277E  120A  118A  	fcall	__Umul8_16
  2321     022A  0874               	movf	?__Umul8_16+1,w
  2322     022B  1283               	bcf	3,5	;RP0=0, select bank0
  2323     022C  1303               	bcf	3,6	;RP1=0, select bank0
  2324     022D  00BF               	movwf	___flmul@temp+1
  2325     022E  0873               	movf	?__Umul8_16,w
  2326     022F  00BE               	movwf	___flmul@temp
  2327     0230                     l1577:
  2328     0230  083E               	movf	___flmul@temp,w
  2329     0231  00AE               	movwf	??___flmul
  2330     0232  083F               	movf	___flmul@temp+1,w
  2331     0233  00AF               	movwf	??___flmul+1
  2332     0234  01B0               	clrf	??___flmul+2
  2333     0235  01B1               	clrf	??___flmul+3
  2334     0236  3008               	movlw	8
  2335     0237                     u1965:
  2336     0237  1003               	clrc
  2337     0238  0DAE               	rlf	??___flmul,f
  2338     0239  0DAF               	rlf	??___flmul+1,f
  2339     023A  0DB0               	rlf	??___flmul+2,f
  2340     023B  0DB1               	rlf	??___flmul+3,f
  2341     023C                     u1960:
  2342     023C  3EFF               	addlw	-1
  2343     023D  1D03               	skipz
  2344     023E  2A37               	goto	u1965
  2345     023F  082E               	movf	??___flmul,w
  2346     0240  07BA               	addwf	___flmul@prod,f
  2347     0241  082F               	movf	??___flmul+1,w
  2348     0242  1103               	clrz
  2349     0243  1803               	skipnc
  2350     0244  3E01               	addlw	1
  2351     0245  1903               	skipnz
  2352     0246  2A48               	goto	u1971
  2353     0247  07BB               	addwf	___flmul@prod+1,f
  2354     0248                     u1971:
  2355     0248  0830               	movf	??___flmul+2,w
  2356     0249  1103               	clrz
  2357     024A  1803               	skipnc
  2358     024B  3E01               	addlw	1
  2359     024C  1903               	skipnz
  2360     024D  2A4F               	goto	u1972
  2361     024E  07BC               	addwf	___flmul@prod+2,f
  2362     024F                     u1972:
  2363     024F  0831               	movf	??___flmul+3,w
  2364     0250  1103               	clrz
  2365     0251  1803               	skipnc
  2366     0252  3E01               	addlw	1
  2367     0253  1903               	skipnz
  2368     0254  2A56               	goto	u1973
  2369     0255  07BD               	addwf	___flmul@prod+3,f
  2370     0256                     u1973:
  2371     0256                     l1579:
  2372     0256  0834               	movf	___flmul@grs,w
  2373     0257  00AE               	movwf	??___flmul
  2374     0258  0835               	movf	___flmul@grs+1,w
  2375     0259  00AF               	movwf	??___flmul+1
  2376     025A  0836               	movf	___flmul@grs+2,w
  2377     025B  00B0               	movwf	??___flmul+2
  2378     025C  0837               	movf	___flmul@grs+3,w
  2379     025D  00B1               	movwf	??___flmul+3
  2380     025E  3018               	movlw	24
  2381     025F                     u1985:
  2382     025F  1003               	clrc
  2383     0260  0CB1               	rrf	??___flmul+3,f
  2384     0261  0CB0               	rrf	??___flmul+2,f
  2385     0262  0CAF               	rrf	??___flmul+1,f
  2386     0263  0CAE               	rrf	??___flmul,f
  2387     0264                     u1980:
  2388     0264  3EFF               	addlw	-1
  2389     0265  1D03               	skipz
  2390     0266  2A5F               	goto	u1985
  2391     0267  082E               	movf	??___flmul,w
  2392     0268  07BA               	addwf	___flmul@prod,f
  2393     0269  082F               	movf	??___flmul+1,w
  2394     026A  1103               	clrz
  2395     026B  1803               	skipnc
  2396     026C  3E01               	addlw	1
  2397     026D  1903               	skipnz
  2398     026E  2A70               	goto	u1991
  2399     026F  07BB               	addwf	___flmul@prod+1,f
  2400     0270                     u1991:
  2401     0270  0830               	movf	??___flmul+2,w
  2402     0271  1103               	clrz
  2403     0272  1803               	skipnc
  2404     0273  3E01               	addlw	1
  2405     0274  1903               	skipnz
  2406     0275  2A77               	goto	u1992
  2407     0276  07BC               	addwf	___flmul@prod+2,f
  2408     0277                     u1992:
  2409     0277  0831               	movf	??___flmul+3,w
  2410     0278  1103               	clrz
  2411     0279  1803               	skipnc
  2412     027A  3E01               	addlw	1
  2413     027B  1903               	skipnz
  2414     027C  2A7E               	goto	u1993
  2415     027D  07BD               	addwf	___flmul@prod+3,f
  2416     027E                     u1993:
  2417     027E                     l1581:
  2418     027E  3008               	movlw	8
  2419     027F  00AE               	movwf	??___flmul
  2420     0280                     u2005:
  2421     0280  1003               	clrc
  2422     0281  0DB4               	rlf	___flmul@grs,f
  2423     0282  0DB5               	rlf	___flmul@grs+1,f
  2424     0283  0DB6               	rlf	___flmul@grs+2,f
  2425     0284  0DB7               	rlf	___flmul@grs+3,f
  2426     0285  0BAE               	decfsz	??___flmul,f
  2427     0286  2A80               	goto	u2005
  2428     0287                     l1583:
  2429     0287  0839               	movf	___flmul@bexp,w
  2430     0288  0738               	addwf	___flmul@aexp,w
  2431     0289  00AE               	movwf	??___flmul
  2432     028A  01AF               	clrf	??___flmul+1
  2433     028B  0DAF               	rlf	??___flmul+1,f
  2434     028C  082E               	movf	??___flmul,w
  2435     028D  3E82               	addlw	130
  2436     028E  00BE               	movwf	___flmul@temp
  2437     028F  082F               	movf	??___flmul+1,w
  2438     0290  1803               	skipnc
  2439     0291  3E01               	addlw	1
  2440     0292  3EFF               	addlw	255
  2441     0293  00BF               	movwf	___flmul@temp+1
  2442     0294  2AB2               	goto	l1595
  2443     0295                     l1585:
  2444     0295  3001               	movlw	1
  2445     0296  00AE               	movwf	??___flmul
  2446     0297                     u2015:
  2447     0297  1003               	clrc
  2448     0298  0DBA               	rlf	___flmul@prod,f
  2449     0299  0DBB               	rlf	___flmul@prod+1,f
  2450     029A  0DBC               	rlf	___flmul@prod+2,f
  2451     029B  0DBD               	rlf	___flmul@prod+3,f
  2452     029C  0BAE               	decfsz	??___flmul,f
  2453     029D  2A97               	goto	u2015
  2454     029E                     l1587:
  2455     029E  1FB7               	btfss	___flmul@grs+3,7
  2456     029F  2AA1               	goto	u2021
  2457     02A0  2AA2               	goto	u2020
  2458     02A1                     u2021:
  2459     02A1  2AA3               	goto	l1591
  2460     02A2                     u2020:
  2461     02A2                     l1589:
  2462     02A2  143A               	bsf	___flmul@prod,0
  2463     02A3                     l1591:
  2464     02A3  3001               	movlw	1
  2465     02A4  00AE               	movwf	??___flmul
  2466     02A5                     u2035:
  2467     02A5  1003               	clrc
  2468     02A6  0DB4               	rlf	___flmul@grs,f
  2469     02A7  0DB5               	rlf	___flmul@grs+1,f
  2470     02A8  0DB6               	rlf	___flmul@grs+2,f
  2471     02A9  0DB7               	rlf	___flmul@grs+3,f
  2472     02AA  0BAE               	decfsz	??___flmul,f
  2473     02AB  2AA5               	goto	u2035
  2474     02AC                     l1593:
  2475     02AC  30FF               	movlw	255
  2476     02AD  07BE               	addwf	___flmul@temp,f
  2477     02AE  1803               	skipnc
  2478     02AF  0ABF               	incf	___flmul@temp+1,f
  2479     02B0  30FF               	movlw	255
  2480     02B1  07BF               	addwf	___flmul@temp+1,f
  2481     02B2                     l1595:
  2482     02B2  1FBC               	btfss	___flmul@prod+2,7
  2483     02B3  2AB5               	goto	u2041
  2484     02B4  2AB6               	goto	u2040
  2485     02B5                     u2041:
  2486     02B5  2A95               	goto	l1585
  2487     02B6                     u2040:
  2488     02B6                     l1597:
  2489     02B6  01B8               	clrf	___flmul@aexp
  2490     02B7                     l1599:
  2491     02B7  1FB7               	btfss	___flmul@grs+3,7
  2492     02B8  2ABA               	goto	u2051
  2493     02B9  2ABB               	goto	u2050
  2494     02BA                     u2051:
  2495     02BA  2AD7               	goto	l1607
  2496     02BB                     u2050:
  2497     02BB                     l1601:
  2498     02BB  30FF               	movlw	255
  2499     02BC  0534               	andwf	___flmul@grs,w
  2500     02BD  00AE               	movwf	??___flmul
  2501     02BE  30FF               	movlw	255
  2502     02BF  0535               	andwf	___flmul@grs+1,w
  2503     02C0  00AF               	movwf	??___flmul+1
  2504     02C1  30FF               	movlw	255
  2505     02C2  0536               	andwf	___flmul@grs+2,w
  2506     02C3  00B0               	movwf	??___flmul+2
  2507     02C4  307F               	movlw	127
  2508     02C5  0537               	andwf	___flmul@grs+3,w
  2509     02C6  00B1               	movwf	??___flmul+3
  2510     02C7  0831               	movf	??___flmul+3,w
  2511     02C8  0430               	iorwf	??___flmul+2,w
  2512     02C9  042F               	iorwf	??___flmul+1,w
  2513     02CA  042E               	iorwf	??___flmul,w
  2514     02CB  1903               	skipnz
  2515     02CC  2ACE               	goto	u2061
  2516     02CD  2ACF               	goto	u2060
  2517     02CE                     u2061:
  2518     02CE  2AD2               	goto	l604
  2519     02CF                     u2060:
  2520     02CF                     l1603:
  2521     02CF  01B8               	clrf	___flmul@aexp
  2522     02D0  0AB8               	incf	___flmul@aexp,f
  2523     02D1  2AD7               	goto	l1607
  2524     02D2                     l604:
  2525     02D2  1C3A               	btfss	___flmul@prod,0
  2526     02D3  2AD5               	goto	u2071
  2527     02D4  2AD6               	goto	u2070
  2528     02D5                     u2071:
  2529     02D5  2AD7               	goto	l1607
  2530     02D6                     u2070:
  2531     02D6  2ACF               	goto	l1603
  2532     02D7                     l1607:
  2533     02D7  0838               	movf	___flmul@aexp,w
  2534     02D8  1903               	btfsc	3,2
  2535     02D9  2ADB               	goto	u2081
  2536     02DA  2ADC               	goto	u2080
  2537     02DB                     u2081:
  2538     02DB  2B0D               	goto	l1617
  2539     02DC                     u2080:
  2540     02DC                     l1609:
  2541     02DC  3001               	movlw	1
  2542     02DD  07BA               	addwf	___flmul@prod,f
  2543     02DE  3000               	movlw	0
  2544     02DF  1803               	skipnc
  2545     02E0  3001               	movlw	1
  2546     02E1  07BB               	addwf	___flmul@prod+1,f
  2547     02E2  3000               	movlw	0
  2548     02E3  1803               	skipnc
  2549     02E4  3001               	movlw	1
  2550     02E5  07BC               	addwf	___flmul@prod+2,f
  2551     02E6  3000               	movlw	0
  2552     02E7  1803               	skipnc
  2553     02E8  3001               	movlw	1
  2554     02E9  07BD               	addwf	___flmul@prod+3,f
  2555     02EA                     l1611:
  2556     02EA  1C3D               	btfss	___flmul@prod+3,0
  2557     02EB  2AED               	goto	u2091
  2558     02EC  2AEE               	goto	u2090
  2559     02ED                     u2091:
  2560     02ED  2B0D               	goto	l1617
  2561     02EE                     u2090:
  2562     02EE                     l1613:
  2563     02EE  083A               	movf	___flmul@prod,w
  2564     02EF  00AE               	movwf	??___flmul
  2565     02F0  083B               	movf	___flmul@prod+1,w
  2566     02F1  00AF               	movwf	??___flmul+1
  2567     02F2  083C               	movf	___flmul@prod+2,w
  2568     02F3  00B0               	movwf	??___flmul+2
  2569     02F4  083D               	movf	___flmul@prod+3,w
  2570     02F5  00B1               	movwf	??___flmul+3
  2571     02F6  3001               	movlw	1
  2572     02F7  00B2               	movwf	??___flmul+4
  2573     02F8                     u2105:
  2574     02F8  0D31               	rlf	??___flmul+3,w
  2575     02F9  0CB1               	rrf	??___flmul+3,f
  2576     02FA  0CB0               	rrf	??___flmul+2,f
  2577     02FB  0CAF               	rrf	??___flmul+1,f
  2578     02FC  0CAE               	rrf	??___flmul,f
  2579     02FD                     u2100:
  2580     02FD  0BB2               	decfsz	??___flmul+4,f
  2581     02FE  2AF8               	goto	u2105
  2582     02FF  0831               	movf	??___flmul+3,w
  2583     0300  00BD               	movwf	___flmul@prod+3
  2584     0301  0830               	movf	??___flmul+2,w
  2585     0302  00BC               	movwf	___flmul@prod+2
  2586     0303  082F               	movf	??___flmul+1,w
  2587     0304  00BB               	movwf	___flmul@prod+1
  2588     0305  082E               	movf	??___flmul,w
  2589     0306  00BA               	movwf	___flmul@prod
  2590     0307                     l1615:
  2591     0307  3001               	movlw	1
  2592     0308  07BE               	addwf	___flmul@temp,f
  2593     0309  1803               	skipnc
  2594     030A  0ABF               	incf	___flmul@temp+1,f
  2595     030B  3000               	movlw	0
  2596     030C  07BF               	addwf	___flmul@temp+1,f
  2597     030D                     l1617:
  2598     030D  083F               	movf	___flmul@temp+1,w
  2599     030E  3A80               	xorlw	128
  2600     030F  00FF               	movwf	btemp+1
  2601     0310  3080               	movlw	128
  2602     0311  027F               	subwf	btemp+1,w
  2603     0312  1D03               	skipz
  2604     0313  2B16               	goto	u2115
  2605     0314  30FF               	movlw	255
  2606     0315  023E               	subwf	___flmul@temp,w
  2607     0316                     u2115:
  2608     0316  1C03               	skipc
  2609     0317  2B19               	goto	u2111
  2610     0318  2B1A               	goto	u2110
  2611     0319                     u2111:
  2612     0319  2B25               	goto	l1621
  2613     031A                     u2110:
  2614     031A                     l1619:
  2615     031A  307F               	movlw	127
  2616     031B  1283               	bcf	3,5	;RP0=0, select bank0
  2617     031C  1303               	bcf	3,6	;RP1=0, select bank0
  2618     031D  00BD               	movwf	___flmul@prod+3
  2619     031E  3080               	movlw	128
  2620     031F  00BC               	movwf	___flmul@prod+2
  2621     0320  3000               	movlw	0
  2622     0321  00BB               	movwf	___flmul@prod+1
  2623     0322  3000               	movlw	0
  2624     0323  00BA               	movwf	___flmul@prod
  2625     0324  2B56               	goto	l610
  2626     0325                     l1621:
  2627     0325  1283               	bcf	3,5	;RP0=0, select bank0
  2628     0326  1303               	bcf	3,6	;RP1=0, select bank0
  2629     0327  083F               	movf	___flmul@temp+1,w
  2630     0328  3A80               	xorlw	128
  2631     0329  00FF               	movwf	btemp+1
  2632     032A  3080               	movlw	128
  2633     032B  027F               	subwf	btemp+1,w
  2634     032C  1D03               	skipz
  2635     032D  2B30               	goto	u2125
  2636     032E  3001               	movlw	1
  2637     032F  023E               	subwf	___flmul@temp,w
  2638     0330                     u2125:
  2639     0330  1803               	skipnc
  2640     0331  2B33               	goto	u2121
  2641     0332  2B34               	goto	u2120
  2642     0333                     u2121:
  2643     0333  2B40               	goto	l1627
  2644     0334                     u2120:
  2645     0334                     l1623:
  2646     0334  3000               	movlw	0
  2647     0335  1283               	bcf	3,5	;RP0=0, select bank0
  2648     0336  1303               	bcf	3,6	;RP1=0, select bank0
  2649     0337  00BD               	movwf	___flmul@prod+3
  2650     0338  3000               	movlw	0
  2651     0339  00BC               	movwf	___flmul@prod+2
  2652     033A  3000               	movlw	0
  2653     033B  00BB               	movwf	___flmul@prod+1
  2654     033C  3000               	movlw	0
  2655     033D  00BA               	movwf	___flmul@prod
  2656     033E                     l1625:
  2657     033E  01B3               	clrf	___flmul@sign
  2658     033F  2B56               	goto	l610
  2659     0340                     l1627:
  2660     0340  1283               	bcf	3,5	;RP0=0, select bank0
  2661     0341  1303               	bcf	3,6	;RP1=0, select bank0
  2662     0342  083E               	movf	___flmul@temp,w
  2663     0343  00B9               	movwf	___flmul@bexp
  2664     0344  30FF               	movlw	255
  2665     0345  05BA               	andwf	___flmul@prod,f
  2666     0346  30FF               	movlw	255
  2667     0347  05BB               	andwf	___flmul@prod+1,f
  2668     0348  307F               	movlw	127
  2669     0349  05BC               	andwf	___flmul@prod+2,f
  2670     034A  3000               	movlw	0
  2671     034B  05BD               	andwf	___flmul@prod+3,f
  2672     034C                     l1629:
  2673     034C  1C39               	btfss	___flmul@bexp,0
  2674     034D  2B4F               	goto	u2131
  2675     034E  2B50               	goto	u2130
  2676     034F                     u2131:
  2677     034F  2B51               	goto	l1633
  2678     0350                     u2130:
  2679     0350                     l1631:
  2680     0350  17BC               	bsf	___flmul@prod+2,7
  2681     0351                     l1633:
  2682     0351  0839               	movf	___flmul@bexp,w
  2683     0352  00AE               	movwf	??___flmul
  2684     0353  1003               	clrc
  2685     0354  0C2E               	rrf	??___flmul,w
  2686     0355  00BD               	movwf	___flmul@prod+3
  2687     0356                     l610:
  2688     0356  0833               	movf	___flmul@sign,w
  2689     0357  00AE               	movwf	??___flmul
  2690     0358  082E               	movf	??___flmul,w
  2691     0359  04BD               	iorwf	___flmul@prod+3,f
  2692     035A                     l1635:
  2693     035A  083D               	movf	___flmul@prod+3,w
  2694     035B  00A9               	movwf	?___flmul+3
  2695     035C  083C               	movf	___flmul@prod+2,w
  2696     035D  00A8               	movwf	?___flmul+2
  2697     035E  083B               	movf	___flmul@prod+1,w
  2698     035F  00A7               	movwf	?___flmul+1
  2699     0360  083A               	movf	___flmul@prod,w
  2700     0361  00A6               	movwf	?___flmul
  2701     0362                     l598:
  2702     0362  0008               	return
  2703     0363                     __end_of___flmul:
  2704                           
  2705                           	psect	text8
  2706     0F7E                     __ptext8:	
  2707 ;; *************** function __Umul8_16 *****************
  2708 ;; Defined at:
  2709 ;;		line 4 in file "C:\Program Files\Microchip\xc8\v2.40\pic\sources\c90\common\Umul8_16.c"
  2710 ;; Parameters:    Size  Location     Type
  2711 ;;  multiplier      1    wreg     unsigned char 
  2712 ;;  multiplicand    1    3[COMMON] unsigned char 
  2713 ;; Auto vars:     Size  Location     Type
  2714 ;;  multiplier      1    4[BANK0 ] unsigned char 
  2715 ;;  word_mpld       2    2[BANK0 ] unsigned int 
  2716 ;;  product         2    0[BANK0 ] unsigned int 
  2717 ;; Return value:  Size  Location     Type
  2718 ;;                  2    3[COMMON] unsigned int 
  2719 ;; Registers used:
  2720 ;;		wreg, status,2, status,0
  2721 ;; Tracked objects:
  2722 ;;		On entry : 0/0
  2723 ;;		On exit  : 0/0
  2724 ;;		Unchanged: 0/0
  2725 ;; Data sizes:     COMMON   BANK0   BANK1   BANK3   BANK2
  2726 ;;      Params:         2       0       0       0       0
  2727 ;;      Locals:         0       5       0       0       0
  2728 ;;      Temps:          2       0       0       0       0
  2729 ;;      Totals:         4       5       0       0       0
  2730 ;;Total ram usage:        9 bytes
  2731 ;; Hardware stack levels used: 1
  2732 ;; Hardware stack levels required when called: 1
  2733 ;; This function calls:
  2734 ;;		Nothing
  2735 ;; This function is called by:
  2736 ;;		___flmul
  2737 ;; This function uses a non-reentrant model
  2738 ;;
  2739                           
  2740     0F7E                     __Umul8_16:	
  2741                           ;psect for function __Umul8_16
  2742                           
  2743                           
  2744                           ;incstack = 0
  2745                           ; Regs used in __Umul8_16: [wreg+status,2+status,0]
  2746                           ;__Umul8_16@multiplier stored from wreg
  2747     0F7E  1283               	bcf	3,5	;RP0=0, select bank0
  2748     0F7F  1303               	bcf	3,6	;RP1=0, select bank0
  2749     0F80  00A4               	movwf	__Umul8_16@multiplier
  2750     0F81                     l1255:
  2751     0F81  01A0               	clrf	__Umul8_16@product
  2752     0F82  01A1               	clrf	__Umul8_16@product+1
  2753     0F83                     l1257:
  2754     0F83  0873               	movf	__Umul8_16@multiplicand,w
  2755     0F84  00F5               	movwf	??__Umul8_16
  2756     0F85  01F6               	clrf	??__Umul8_16+1
  2757     0F86  0875               	movf	??__Umul8_16,w
  2758     0F87  00A2               	movwf	__Umul8_16@word_mpld
  2759     0F88  0876               	movf	??__Umul8_16+1,w
  2760     0F89  00A3               	movwf	__Umul8_16@word_mpld+1
  2761     0F8A                     l1259:
  2762     0F8A  1C24               	btfss	__Umul8_16@multiplier,0
  2763     0F8B  2F8D               	goto	u1181
  2764     0F8C  2F8E               	goto	u1180
  2765     0F8D                     u1181:
  2766     0F8D  2F94               	goto	l617
  2767     0F8E                     u1180:
  2768     0F8E                     l1261:
  2769     0F8E  0822               	movf	__Umul8_16@word_mpld,w
  2770     0F8F  07A0               	addwf	__Umul8_16@product,f
  2771     0F90  1803               	skipnc
  2772     0F91  0AA1               	incf	__Umul8_16@product+1,f
  2773     0F92  0823               	movf	__Umul8_16@word_mpld+1,w
  2774     0F93  07A1               	addwf	__Umul8_16@product+1,f
  2775     0F94                     l617:
  2776     0F94  3001               	movlw	1
  2777     0F95                     u1195:
  2778     0F95  1003               	clrc
  2779     0F96  0DA2               	rlf	__Umul8_16@word_mpld,f
  2780     0F97  0DA3               	rlf	__Umul8_16@word_mpld+1,f
  2781     0F98  3EFF               	addlw	-1
  2782     0F99  1D03               	skipz
  2783     0F9A  2F95               	goto	u1195
  2784     0F9B  1003               	clrc
  2785     0F9C  0CA4               	rrf	__Umul8_16@multiplier,f
  2786     0F9D                     l1263:
  2787     0F9D  0824               	movf	__Umul8_16@multiplier,w
  2788     0F9E  1D03               	btfss	3,2
  2789     0F9F  2FA1               	goto	u1201
  2790     0FA0  2FA2               	goto	u1200
  2791     0FA1                     u1201:
  2792     0FA1  2F8A               	goto	l1259
  2793     0FA2                     u1200:
  2794     0FA2                     l1265:
  2795     0FA2  0821               	movf	__Umul8_16@product+1,w
  2796     0FA3  00F4               	movwf	?__Umul8_16+1
  2797     0FA4  0820               	movf	__Umul8_16@product,w
  2798     0FA5  00F3               	movwf	?__Umul8_16
  2799     0FA6                     l619:
  2800     0FA6  0008               	return
  2801     0FA7                     __end_of__Umul8_16:
  2802                           
  2803                           	psect	text9
  2804     0363                     __ptext9:	
  2805 ;; *************** function ___fladd *****************
  2806 ;; Defined at:
  2807 ;;		line 10 in file "C:\Program Files\Microchip\xc8\v2.40\pic\sources\c90\common\sprcadd.c"
  2808 ;; Parameters:    Size  Location     Type
  2809 ;;  b               4   32[BANK0 ] unsigned int 
  2810 ;;  a               4   36[BANK0 ] unsigned int 
  2811 ;; Auto vars:     Size  Location     Type
  2812 ;;  grs             1   51[BANK0 ] unsigned char 
  2813 ;;  bexp            1   50[BANK0 ] unsigned char 
  2814 ;;  aexp            1   49[BANK0 ] unsigned char 
  2815 ;;  signs           1   48[BANK0 ] unsigned char 
  2816 ;; Return value:  Size  Location     Type
  2817 ;;                  4   32[BANK0 ] unsigned char 
  2818 ;; Registers used:
  2819 ;;		wreg, status,2, status,0, btemp+1
  2820 ;; Tracked objects:
  2821 ;;		On entry : 0/0
  2822 ;;		On exit  : 0/0
  2823 ;;		Unchanged: 0/0
  2824 ;; Data sizes:     COMMON   BANK0   BANK1   BANK3   BANK2
  2825 ;;      Params:         0       8       0       0       0
  2826 ;;      Locals:         0       4       0       0       0
  2827 ;;      Temps:          0       8       0       0       0
  2828 ;;      Totals:         0      20       0       0       0
  2829 ;;Total ram usage:       20 bytes
  2830 ;; Hardware stack levels used: 1
  2831 ;; Hardware stack levels required when called: 1
  2832 ;; This function calls:
  2833 ;;		Nothing
  2834 ;; This function is called by:
  2835 ;;		_convertir
  2836 ;; This function uses a non-reentrant model
  2837 ;;
  2838                           
  2839     0363                     ___fladd:	
  2840                           ;psect for function ___fladd
  2841                           
  2842     0363                     l1305:	
  2843                           ;incstack = 0
  2844                           ; Regs used in ___fladd: [wreg+status,2+status,0+btemp+1]
  2845                           
  2846     0363  1283               	bcf	3,5	;RP0=0, select bank0
  2847     0364  1303               	bcf	3,6	;RP1=0, select bank0
  2848     0365  0843               	movf	___fladd@b+3,w
  2849     0366  3980               	andlw	128
  2850     0367  00D0               	movwf	___fladd@signs
  2851     0368                     l1307:
  2852     0368  0843               	movf	___fladd@b+3,w
  2853     0369  00C8               	movwf	??___fladd
  2854     036A  0748               	addwf	??___fladd,w
  2855     036B  00D2               	movwf	___fladd@bexp
  2856     036C                     l1309:
  2857     036C  1FC2               	btfss	___fladd@b+2,7
  2858     036D  2B6F               	goto	u1311
  2859     036E  2B70               	goto	u1310
  2860     036F                     u1311:
  2861     036F  2B71               	goto	l1313
  2862     0370                     u1310:
  2863     0370                     l1311:
  2864     0370  1452               	bsf	___fladd@bexp,0
  2865     0371                     l1313:
  2866     0371  0852               	movf	___fladd@bexp,w
  2867     0372  1903               	btfsc	3,2
  2868     0373  2B75               	goto	u1321
  2869     0374  2B76               	goto	u1320
  2870     0375                     u1321:
  2871     0375  2B86               	goto	l1323
  2872     0376                     u1320:
  2873     0376                     l1315:
  2874     0376  0A52               	incf	___fladd@bexp,w
  2875     0377  1D03               	btfss	3,2
  2876     0378  2B7A               	goto	u1331
  2877     0379  2B7B               	goto	u1330
  2878     037A                     u1331:
  2879     037A  2B83               	goto	l1319
  2880     037B                     u1330:
  2881     037B                     l1317:
  2882     037B  3000               	movlw	0
  2883     037C  00C3               	movwf	___fladd@b+3
  2884     037D  3000               	movlw	0
  2885     037E  00C2               	movwf	___fladd@b+2
  2886     037F  3000               	movlw	0
  2887     0380  00C1               	movwf	___fladd@b+1
  2888     0381  3000               	movlw	0
  2889     0382  00C0               	movwf	___fladd@b
  2890     0383                     l1319:
  2891     0383  17C2               	bsf	___fladd@b+2,7
  2892     0384                     l1321:
  2893     0384  01C3               	clrf	___fladd@b+3
  2894     0385  2B8E               	goto	l1325
  2895     0386                     l1323:
  2896     0386  3000               	movlw	0
  2897     0387  00C3               	movwf	___fladd@b+3
  2898     0388  3000               	movlw	0
  2899     0389  00C2               	movwf	___fladd@b+2
  2900     038A  3000               	movlw	0
  2901     038B  00C1               	movwf	___fladd@b+1
  2902     038C  3000               	movlw	0
  2903     038D  00C0               	movwf	___fladd@b
  2904     038E                     l1325:
  2905     038E  0847               	movf	___fladd@a+3,w
  2906     038F  3980               	andlw	128
  2907     0390  00D1               	movwf	___fladd@aexp
  2908     0391                     l1327:
  2909     0391  0851               	movf	___fladd@aexp,w
  2910     0392  0650               	xorwf	___fladd@signs,w
  2911     0393  1903               	skipnz
  2912     0394  2B96               	goto	u1341
  2913     0395  2B97               	goto	u1340
  2914     0396                     u1341:
  2915     0396  2B98               	goto	l1331
  2916     0397                     u1340:
  2917     0397                     l1329:
  2918     0397  1750               	bsf	___fladd@signs,6
  2919     0398                     l1331:
  2920     0398  0847               	movf	___fladd@a+3,w
  2921     0399  00C8               	movwf	??___fladd
  2922     039A  0748               	addwf	??___fladd,w
  2923     039B  00D1               	movwf	___fladd@aexp
  2924     039C                     l1333:
  2925     039C  1FC6               	btfss	___fladd@a+2,7
  2926     039D  2B9F               	goto	u1351
  2927     039E  2BA0               	goto	u1350
  2928     039F                     u1351:
  2929     039F  2BA1               	goto	l1337
  2930     03A0                     u1350:
  2931     03A0                     l1335:
  2932     03A0  1451               	bsf	___fladd@aexp,0
  2933     03A1                     l1337:
  2934     03A1  0851               	movf	___fladd@aexp,w
  2935     03A2  1903               	btfsc	3,2
  2936     03A3  2BA5               	goto	u1361
  2937     03A4  2BA6               	goto	u1360
  2938     03A5                     u1361:
  2939     03A5  2BB6               	goto	l1347
  2940     03A6                     u1360:
  2941     03A6                     l1339:
  2942     03A6  0A51               	incf	___fladd@aexp,w
  2943     03A7  1D03               	btfss	3,2
  2944     03A8  2BAA               	goto	u1371
  2945     03A9  2BAB               	goto	u1370
  2946     03AA                     u1371:
  2947     03AA  2BB3               	goto	l1343
  2948     03AB                     u1370:
  2949     03AB                     l1341:
  2950     03AB  3000               	movlw	0
  2951     03AC  00C7               	movwf	___fladd@a+3
  2952     03AD  3000               	movlw	0
  2953     03AE  00C6               	movwf	___fladd@a+2
  2954     03AF  3000               	movlw	0
  2955     03B0  00C5               	movwf	___fladd@a+1
  2956     03B1  3000               	movlw	0
  2957     03B2  00C4               	movwf	___fladd@a
  2958     03B3                     l1343:
  2959     03B3  17C6               	bsf	___fladd@a+2,7
  2960     03B4                     l1345:
  2961     03B4  01C7               	clrf	___fladd@a+3
  2962     03B5  2BBE               	goto	l502
  2963     03B6                     l1347:
  2964     03B6  3000               	movlw	0
  2965     03B7  00C7               	movwf	___fladd@a+3
  2966     03B8  3000               	movlw	0
  2967     03B9  00C6               	movwf	___fladd@a+2
  2968     03BA  3000               	movlw	0
  2969     03BB  00C5               	movwf	___fladd@a+1
  2970     03BC  3000               	movlw	0
  2971     03BD  00C4               	movwf	___fladd@a
  2972     03BE                     l502:
  2973     03BE  0852               	movf	___fladd@bexp,w
  2974     03BF  0251               	subwf	___fladd@aexp,w
  2975     03C0  1803               	skipnc
  2976     03C1  2BC3               	goto	u1381
  2977     03C2  2BC4               	goto	u1380
  2978     03C3                     u1381:
  2979     03C3  2BEA               	goto	l1383
  2980     03C4                     u1380:
  2981     03C4                     l1349:
  2982     03C4  1F50               	btfss	___fladd@signs,6
  2983     03C5  2BC7               	goto	u1391
  2984     03C6  2BC8               	goto	u1390
  2985     03C7                     u1391:
  2986     03C7  2BCC               	goto	l1353
  2987     03C8                     u1390:
  2988     03C8                     l1351:
  2989     03C8  3080               	movlw	128
  2990     03C9  00C8               	movwf	??___fladd
  2991     03CA  0848               	movf	??___fladd,w
  2992     03CB  06D0               	xorwf	___fladd@signs,f
  2993     03CC                     l1353:
  2994     03CC  0852               	movf	___fladd@bexp,w
  2995     03CD  00D3               	movwf	___fladd@grs
  2996     03CE                     l1355:
  2997     03CE  0851               	movf	___fladd@aexp,w
  2998     03CF  00D2               	movwf	___fladd@bexp
  2999     03D0                     l1357:
  3000     03D0  0853               	movf	___fladd@grs,w
  3001     03D1  00D1               	movwf	___fladd@aexp
  3002     03D2                     l1359:
  3003     03D2  0840               	movf	___fladd@b,w
  3004     03D3  00D3               	movwf	___fladd@grs
  3005     03D4                     l1361:
  3006     03D4  0844               	movf	___fladd@a,w
  3007     03D5  00C0               	movwf	___fladd@b
  3008     03D6                     l1363:
  3009     03D6  0853               	movf	___fladd@grs,w
  3010     03D7  00C4               	movwf	___fladd@a
  3011     03D8                     l1365:
  3012     03D8  0841               	movf	___fladd@b+1,w
  3013     03D9  00D3               	movwf	___fladd@grs
  3014     03DA                     l1367:
  3015     03DA  0845               	movf	___fladd@a+1,w
  3016     03DB  00C1               	movwf	___fladd@b+1
  3017     03DC                     l1369:
  3018     03DC  0853               	movf	___fladd@grs,w
  3019     03DD  00C5               	movwf	___fladd@a+1
  3020     03DE                     l1371:
  3021     03DE  0842               	movf	___fladd@b+2,w
  3022     03DF  00D3               	movwf	___fladd@grs
  3023     03E0                     l1373:
  3024     03E0  0846               	movf	___fladd@a+2,w
  3025     03E1  00C2               	movwf	___fladd@b+2
  3026     03E2                     l1375:
  3027     03E2  0853               	movf	___fladd@grs,w
  3028     03E3  00C6               	movwf	___fladd@a+2
  3029     03E4                     l1377:
  3030     03E4  0843               	movf	___fladd@b+3,w
  3031     03E5  00D3               	movwf	___fladd@grs
  3032     03E6                     l1379:
  3033     03E6  0847               	movf	___fladd@a+3,w
  3034     03E7  00C3               	movwf	___fladd@b+3
  3035     03E8                     l1381:
  3036     03E8  0853               	movf	___fladd@grs,w
  3037     03E9  00C7               	movwf	___fladd@a+3
  3038     03EA                     l1383:
  3039     03EA  01D3               	clrf	___fladd@grs
  3040     03EB                     l1385:
  3041     03EB  0851               	movf	___fladd@aexp,w
  3042     03EC  00C8               	movwf	??___fladd
  3043     03ED  01C9               	clrf	??___fladd+1
  3044     03EE  0849               	movf	??___fladd+1,w
  3045     03EF  00CB               	movwf	??___fladd+3
  3046     03F0  0852               	movf	___fladd@bexp,w
  3047     03F1  0248               	subwf	??___fladd,w
  3048     03F2  00CA               	movwf	??___fladd+2
  3049     03F3  1C03               	skipc
  3050     03F4  03CB               	decf	??___fladd+3,f
  3051     03F5  084B               	movf	??___fladd+3,w
  3052     03F6  3A80               	xorlw	128
  3053     03F7  00FF               	movwf	btemp+1
  3054     03F8  3080               	movlw	128
  3055     03F9  027F               	subwf	btemp+1,w
  3056     03FA  1D03               	skipz
  3057     03FB  2BFE               	goto	u1405
  3058     03FC  301A               	movlw	26
  3059     03FD  024A               	subwf	??___fladd+2,w
  3060     03FE                     u1405:
  3061     03FE  1C03               	skipc
  3062     03FF  2C01               	goto	u1401
  3063     0400  2C02               	goto	u1400
  3064     0401                     u1401:
  3065     0401  2C39               	goto	l1401
  3066     0402                     u1400:
  3067     0402                     l1387:
  3068     0402  1283               	bcf	3,5	;RP0=0, select bank0
  3069     0403  1303               	bcf	3,6	;RP1=0, select bank0
  3070     0404  0843               	movf	___fladd@b+3,w
  3071     0405  0442               	iorwf	___fladd@b+2,w
  3072     0406  0441               	iorwf	___fladd@b+1,w
  3073     0407  0440               	iorwf	___fladd@b,w
  3074     0408  1D03               	skipz
  3075     0409  2C0B               	goto	u1411
  3076     040A  2C0D               	goto	u1410
  3077     040B                     u1411:
  3078     040B  3001               	movlw	1
  3079     040C  2C0E               	goto	u1420
  3080     040D                     u1410:
  3081     040D  3000               	movlw	0
  3082     040E                     u1420:
  3083     040E  00D3               	movwf	___fladd@grs
  3084     040F  3000               	movlw	0
  3085     0410  00C3               	movwf	___fladd@b+3
  3086     0411  3000               	movlw	0
  3087     0412  00C2               	movwf	___fladd@b+2
  3088     0413  3000               	movlw	0
  3089     0414  00C1               	movwf	___fladd@b+1
  3090     0415  3000               	movlw	0
  3091     0416  00C0               	movwf	___fladd@b
  3092     0417  0851               	movf	___fladd@aexp,w
  3093     0418  00D2               	movwf	___fladd@bexp
  3094     0419  2C41               	goto	l506
  3095     041A                     l508:
  3096     041A  1C53               	btfss	___fladd@grs,0
  3097     041B  2C1D               	goto	u1431
  3098     041C  2C1E               	goto	u1430
  3099     041D                     u1431:
  3100     041D  2C25               	goto	l1391
  3101     041E                     u1430:
  3102     041E                     l1389:
  3103     041E  0853               	movf	___fladd@grs,w
  3104     041F  00C8               	movwf	??___fladd
  3105     0420  1003               	clrc
  3106     0421  0C48               	rrf	??___fladd,w
  3107     0422  3801               	iorlw	1
  3108     0423  00D3               	movwf	___fladd@grs
  3109     0424  2C27               	goto	l1393
  3110     0425                     l1391:
  3111     0425  1003               	clrc
  3112     0426  0CD3               	rrf	___fladd@grs,f
  3113     0427                     l1393:
  3114     0427  1C40               	btfss	___fladd@b,0
  3115     0428  2C2A               	goto	u1441
  3116     0429  2C2B               	goto	u1440
  3117     042A                     u1441:
  3118     042A  2C2C               	goto	l1397
  3119     042B                     u1440:
  3120     042B                     l1395:
  3121     042B  17D3               	bsf	___fladd@grs,7
  3122     042C                     l1397:
  3123     042C  3001               	movlw	1
  3124     042D  00C8               	movwf	??___fladd
  3125     042E                     u1455:
  3126     042E  0D43               	rlf	___fladd@b+3,w
  3127     042F  0CC3               	rrf	___fladd@b+3,f
  3128     0430  0CC2               	rrf	___fladd@b+2,f
  3129     0431  0CC1               	rrf	___fladd@b+1,f
  3130     0432  0CC0               	rrf	___fladd@b,f
  3131     0433  0BC8               	decfsz	??___fladd& (0+127),f
  3132     0434  2C2E               	goto	u1455
  3133     0435                     l1399:
  3134     0435  3001               	movlw	1
  3135     0436  00C8               	movwf	??___fladd
  3136     0437  0848               	movf	??___fladd,w
  3137     0438  07D2               	addwf	___fladd@bexp,f
  3138     0439                     l1401:
  3139     0439  1283               	bcf	3,5	;RP0=0, select bank0
  3140     043A  1303               	bcf	3,6	;RP1=0, select bank0
  3141     043B  0851               	movf	___fladd@aexp,w
  3142     043C  0252               	subwf	___fladd@bexp,w
  3143     043D  1C03               	skipc
  3144     043E  2C40               	goto	u1461
  3145     043F  2C41               	goto	u1460
  3146     0440                     u1461:
  3147     0440  2C1A               	goto	l508
  3148     0441                     u1460:
  3149     0441                     l506:
  3150     0441  1B50               	btfsc	___fladd@signs,6
  3151     0442  2C44               	goto	u1471
  3152     0443  2C45               	goto	u1470
  3153     0444                     u1471:
  3154     0444  2C8E               	goto	l1427
  3155     0445                     u1470:
  3156     0445                     l1403:
  3157     0445  0852               	movf	___fladd@bexp,w
  3158     0446  1D03               	btfss	3,2
  3159     0447  2C49               	goto	u1481
  3160     0448  2C4A               	goto	u1480
  3161     0449                     u1481:
  3162     0449  2C53               	goto	l1409
  3163     044A                     u1480:
  3164     044A                     l1405:
  3165     044A  3000               	movlw	0
  3166     044B  00C3               	movwf	?___fladd+3
  3167     044C  3000               	movlw	0
  3168     044D  00C2               	movwf	?___fladd+2
  3169     044E  3000               	movlw	0
  3170     044F  00C1               	movwf	?___fladd+1
  3171     0450  3000               	movlw	0
  3172     0451  00C0               	movwf	?___fladd
  3173     0452  2DBA               	goto	l515
  3174     0453                     l1409:
  3175     0453  0844               	movf	___fladd@a,w
  3176     0454  07C0               	addwf	___fladd@b,f
  3177     0455  0845               	movf	___fladd@a+1,w
  3178     0456  1103               	clrz
  3179     0457  1803               	skipnc
  3180     0458  3E01               	addlw	1
  3181     0459  1903               	skipnz
  3182     045A  2C5C               	goto	u1491
  3183     045B  07C1               	addwf	___fladd@b+1,f
  3184     045C                     u1491:
  3185     045C  0846               	movf	___fladd@a+2,w
  3186     045D  1103               	clrz
  3187     045E  1803               	skipnc
  3188     045F  3E01               	addlw	1
  3189     0460  1903               	skipnz
  3190     0461  2C63               	goto	u1492
  3191     0462  07C2               	addwf	___fladd@b+2,f
  3192     0463                     u1492:
  3193     0463  0847               	movf	___fladd@a+3,w
  3194     0464  1103               	clrz
  3195     0465  1803               	skipnc
  3196     0466  3E01               	addlw	1
  3197     0467  1903               	skipnz
  3198     0468  2C6A               	goto	u1493
  3199     0469  07C3               	addwf	___fladd@b+3,f
  3200     046A                     u1493:
  3201     046A                     l1411:
  3202     046A  1C43               	btfss	___fladd@b+3,0
  3203     046B  2C6D               	goto	u1501
  3204     046C  2C6E               	goto	u1500
  3205     046D                     u1501:
  3206     046D  2D42               	goto	l1461
  3207     046E                     u1500:
  3208     046E                     l1413:
  3209     046E  1C53               	btfss	___fladd@grs,0
  3210     046F  2C71               	goto	u1511
  3211     0470  2C72               	goto	u1510
  3212     0471                     u1511:
  3213     0471  2C79               	goto	l1417
  3214     0472                     u1510:
  3215     0472                     l1415:
  3216     0472  0853               	movf	___fladd@grs,w
  3217     0473  00C8               	movwf	??___fladd
  3218     0474  1003               	clrc
  3219     0475  0C48               	rrf	??___fladd,w
  3220     0476  3801               	iorlw	1
  3221     0477  00D3               	movwf	___fladd@grs
  3222     0478  2C7B               	goto	l1419
  3223     0479                     l1417:
  3224     0479  1003               	clrc
  3225     047A  0CD3               	rrf	___fladd@grs,f
  3226     047B                     l1419:
  3227     047B  1C40               	btfss	___fladd@b,0
  3228     047C  2C7E               	goto	u1521
  3229     047D  2C7F               	goto	u1520
  3230     047E                     u1521:
  3231     047E  2C80               	goto	l1423
  3232     047F                     u1520:
  3233     047F                     l1421:
  3234     047F  17D3               	bsf	___fladd@grs,7
  3235     0480                     l1423:
  3236     0480  3001               	movlw	1
  3237     0481  00C8               	movwf	??___fladd
  3238     0482                     u1535:
  3239     0482  0D43               	rlf	___fladd@b+3,w
  3240     0483  0CC3               	rrf	___fladd@b+3,f
  3241     0484  0CC2               	rrf	___fladd@b+2,f
  3242     0485  0CC1               	rrf	___fladd@b+1,f
  3243     0486  0CC0               	rrf	___fladd@b,f
  3244     0487  0BC8               	decfsz	??___fladd& (0+127),f
  3245     0488  2C82               	goto	u1535
  3246     0489                     l1425:
  3247     0489  3001               	movlw	1
  3248     048A  00C8               	movwf	??___fladd
  3249     048B  0848               	movf	??___fladd,w
  3250     048C  07D2               	addwf	___fladd@bexp,f
  3251     048D  2D42               	goto	l1461
  3252     048E                     l1427:
  3253     048E  0843               	movf	___fladd@b+3,w
  3254     048F  3A80               	xorlw	128
  3255     0490  00FF               	movwf	btemp+1
  3256     0491  0847               	movf	___fladd@a+3,w
  3257     0492  3A80               	xorlw	128
  3258     0493  027F               	subwf	btemp+1,w
  3259     0494  1D03               	skipz
  3260     0495  2CA0               	goto	u1543
  3261     0496  0846               	movf	___fladd@a+2,w
  3262     0497  0242               	subwf	___fladd@b+2,w
  3263     0498  1D03               	skipz
  3264     0499  2CA0               	goto	u1543
  3265     049A  0845               	movf	___fladd@a+1,w
  3266     049B  0241               	subwf	___fladd@b+1,w
  3267     049C  1D03               	skipz
  3268     049D  2CA0               	goto	u1543
  3269     049E  0844               	movf	___fladd@a,w
  3270     049F  0240               	subwf	___fladd@b,w
  3271     04A0                     u1543:
  3272     04A0  1803               	skipnc
  3273     04A1  2CA3               	goto	u1541
  3274     04A2  2CA4               	goto	u1540
  3275     04A3                     u1541:
  3276     04A3  2CFC               	goto	l1437
  3277     04A4                     u1540:
  3278     04A4                     l1429:
  3279     04A4  30FF               	movlw	255
  3280     04A5  00C8               	movwf	??___fladd
  3281     04A6  30FF               	movlw	255
  3282     04A7  00C9               	movwf	??___fladd+1
  3283     04A8  30FF               	movlw	255
  3284     04A9  00CA               	movwf	??___fladd+2
  3285     04AA  30FF               	movlw	255
  3286     04AB  00CB               	movwf	??___fladd+3
  3287     04AC  0844               	movf	___fladd@a,w
  3288     04AD  00CC               	movwf	??___fladd+4
  3289     04AE  0845               	movf	___fladd@a+1,w
  3290     04AF  00CD               	movwf	??___fladd+5
  3291     04B0  0846               	movf	___fladd@a+2,w
  3292     04B1  00CE               	movwf	??___fladd+6
  3293     04B2  0847               	movf	___fladd@a+3,w
  3294     04B3  00CF               	movwf	??___fladd+7
  3295     04B4  0840               	movf	___fladd@b,w
  3296     04B5  02CC               	subwf	??___fladd+4,f
  3297     04B6  0841               	movf	___fladd@b+1,w
  3298     04B7  1C03               	skipc
  3299     04B8  0F41               	incfsz	___fladd@b+1,w
  3300     04B9  2CBB               	goto	u1551
  3301     04BA  2CBC               	goto	u1552
  3302     04BB                     u1551:
  3303     04BB  02CD               	subwf	??___fladd+5,f
  3304     04BC                     u1552:
  3305     04BC  0842               	movf	___fladd@b+2,w
  3306     04BD  1C03               	skipc
  3307     04BE  0F42               	incfsz	___fladd@b+2,w
  3308     04BF  2CC1               	goto	u1553
  3309     04C0  2CC2               	goto	u1554
  3310     04C1                     u1553:
  3311     04C1  02CE               	subwf	??___fladd+6,f
  3312     04C2                     u1554:
  3313     04C2  0843               	movf	___fladd@b+3,w
  3314     04C3  1C03               	skipc
  3315     04C4  0F43               	incfsz	___fladd@b+3,w
  3316     04C5  2CC7               	goto	u1555
  3317     04C6  2CC8               	goto	u1556
  3318     04C7                     u1555:
  3319     04C7  02CF               	subwf	??___fladd+7,f
  3320     04C8                     u1556:
  3321     04C8  084C               	movf	??___fladd+4,w
  3322     04C9  07C8               	addwf	??___fladd,f
  3323     04CA  084D               	movf	??___fladd+5,w
  3324     04CB  1803               	skipnc
  3325     04CC  0F4D               	incfsz	??___fladd+5,w
  3326     04CD  2CCF               	goto	u1560
  3327     04CE  2CD0               	goto	u1561
  3328     04CF                     u1560:
  3329     04CF  07C9               	addwf	??___fladd+1,f
  3330     04D0                     u1561:
  3331     04D0  084E               	movf	??___fladd+6,w
  3332     04D1  1803               	skipnc
  3333     04D2  0F4E               	incfsz	??___fladd+6,w
  3334     04D3  2CD5               	goto	u1562
  3335     04D4  2CD6               	goto	u1563
  3336     04D5                     u1562:
  3337     04D5  07CA               	addwf	??___fladd+2,f
  3338     04D6                     u1563:
  3339     04D6  084F               	movf	??___fladd+7,w
  3340     04D7  1803               	skipnc
  3341     04D8  0A4F               	incf	??___fladd+7,w
  3342     04D9  07CB               	addwf	??___fladd+3,f
  3343     04DA  084B               	movf	??___fladd+3,w
  3344     04DB  00C3               	movwf	___fladd@b+3
  3345     04DC  084A               	movf	??___fladd+2,w
  3346     04DD  00C2               	movwf	___fladd@b+2
  3347     04DE  0849               	movf	??___fladd+1,w
  3348     04DF  00C1               	movwf	___fladd@b+1
  3349     04E0  0848               	movf	??___fladd,w
  3350     04E1  00C0               	movwf	___fladd@b
  3351     04E2                     l1431:
  3352     04E2  3080               	movlw	128
  3353     04E3  00C8               	movwf	??___fladd
  3354     04E4  0848               	movf	??___fladd,w
  3355     04E5  06D0               	xorwf	___fladd@signs,f
  3356     04E6  09D3               	comf	___fladd@grs,f
  3357     04E7  0AD3               	incf	___fladd@grs,f
  3358     04E8                     l1433:
  3359     04E8  0853               	movf	___fladd@grs,w
  3360     04E9  1D03               	btfss	3,2
  3361     04EA  2CEC               	goto	u1571
  3362     04EB  2CED               	goto	u1570
  3363     04EC                     u1571:
  3364     04EC  2D0A               	goto	l523
  3365     04ED                     u1570:
  3366     04ED                     l1435:
  3367     04ED  3001               	movlw	1
  3368     04EE  07C0               	addwf	___fladd@b,f
  3369     04EF  3000               	movlw	0
  3370     04F0  1803               	skipnc
  3371     04F1  3001               	movlw	1
  3372     04F2  07C1               	addwf	___fladd@b+1,f
  3373     04F3  3000               	movlw	0
  3374     04F4  1803               	skipnc
  3375     04F5  3001               	movlw	1
  3376     04F6  07C2               	addwf	___fladd@b+2,f
  3377     04F7  3000               	movlw	0
  3378     04F8  1803               	skipnc
  3379     04F9  3001               	movlw	1
  3380     04FA  07C3               	addwf	___fladd@b+3,f
  3381     04FB  2D0A               	goto	l523
  3382     04FC                     l1437:
  3383     04FC  0844               	movf	___fladd@a,w
  3384     04FD  02C0               	subwf	___fladd@b,f
  3385     04FE  0845               	movf	___fladd@a+1,w
  3386     04FF  1C03               	skipc
  3387     0500  0F45               	incfsz	___fladd@a+1,w
  3388     0501  02C1               	subwf	___fladd@b+1,f
  3389     0502  0846               	movf	___fladd@a+2,w
  3390     0503  1C03               	skipc
  3391     0504  0F46               	incfsz	___fladd@a+2,w
  3392     0505  02C2               	subwf	___fladd@b+2,f
  3393     0506  0847               	movf	___fladd@a+3,w
  3394     0507  1C03               	skipc
  3395     0508  0F47               	incfsz	___fladd@a+3,w
  3396     0509  02C3               	subwf	___fladd@b+3,f
  3397     050A                     l523:
  3398     050A  0843               	movf	___fladd@b+3,w
  3399     050B  0442               	iorwf	___fladd@b+2,w
  3400     050C  0441               	iorwf	___fladd@b+1,w
  3401     050D  0440               	iorwf	___fladd@b,w
  3402     050E  1D03               	skipz
  3403     050F  2D11               	goto	u1581
  3404     0510  2D12               	goto	u1580
  3405     0511                     u1581:
  3406     0511  2D3E               	goto	l1459
  3407     0512                     u1580:
  3408     0512                     l1439:
  3409     0512  0853               	movf	___fladd@grs,w
  3410     0513  1D03               	btfss	3,2
  3411     0514  2D16               	goto	u1591
  3412     0515  2D17               	goto	u1590
  3413     0516                     u1591:
  3414     0516  2D3E               	goto	l1459
  3415     0517                     u1590:
  3416     0517                     l1441:
  3417     0517  3000               	movlw	0
  3418     0518  00C3               	movwf	?___fladd+3
  3419     0519  3000               	movlw	0
  3420     051A  00C2               	movwf	?___fladd+2
  3421     051B  3000               	movlw	0
  3422     051C  00C1               	movwf	?___fladd+1
  3423     051D  3000               	movlw	0
  3424     051E  00C0               	movwf	?___fladd
  3425     051F  2DBA               	goto	l515
  3426     0520                     l1445:
  3427     0520  3001               	movlw	1
  3428     0521  00C8               	movwf	??___fladd
  3429     0522                     u1605:
  3430     0522  1003               	clrc
  3431     0523  0DC0               	rlf	___fladd@b,f
  3432     0524  0DC1               	rlf	___fladd@b+1,f
  3433     0525  0DC2               	rlf	___fladd@b+2,f
  3434     0526  0DC3               	rlf	___fladd@b+3,f
  3435     0527  0BC8               	decfsz	??___fladd,f
  3436     0528  2D22               	goto	u1605
  3437     0529                     l1447:
  3438     0529  1FD3               	btfss	___fladd@grs,7
  3439     052A  2D2C               	goto	u1611
  3440     052B  2D2D               	goto	u1610
  3441     052C                     u1611:
  3442     052C  2D2E               	goto	l527
  3443     052D                     u1610:
  3444     052D                     l1449:
  3445     052D  1440               	bsf	___fladd@b,0
  3446     052E                     l527:
  3447     052E  1C53               	btfss	___fladd@grs,0
  3448     052F  2D31               	goto	u1621
  3449     0530  2D32               	goto	u1620
  3450     0531                     u1621:
  3451     0531  2D35               	goto	l1453
  3452     0532                     u1620:
  3453     0532                     l1451:
  3454     0532  1403               	setc
  3455     0533  0DD3               	rlf	___fladd@grs,f
  3456     0534  2D37               	goto	l1455
  3457     0535                     l1453:
  3458     0535  1003               	clrc
  3459     0536  0DD3               	rlf	___fladd@grs,f
  3460     0537                     l1455:
  3461     0537  0852               	movf	___fladd@bexp,w
  3462     0538  1903               	btfsc	3,2
  3463     0539  2D3B               	goto	u1631
  3464     053A  2D3C               	goto	u1630
  3465     053B                     u1631:
  3466     053B  2D3E               	goto	l1459
  3467     053C                     u1630:
  3468     053C                     l1457:
  3469     053C  3001               	movlw	1
  3470     053D  02D2               	subwf	___fladd@bexp,f
  3471     053E                     l1459:
  3472     053E  1FC2               	btfss	___fladd@b+2,7
  3473     053F  2D41               	goto	u1641
  3474     0540  2D42               	goto	u1640
  3475     0541                     u1641:
  3476     0541  2D20               	goto	l1445
  3477     0542                     u1640:
  3478     0542                     l1461:
  3479     0542  01D1               	clrf	___fladd@aexp
  3480     0543                     l1463:
  3481     0543  1FD3               	btfss	___fladd@grs,7
  3482     0544  2D46               	goto	u1651
  3483     0545  2D47               	goto	u1650
  3484     0546                     u1651:
  3485     0546  2D55               	goto	l1471
  3486     0547                     u1650:
  3487     0547                     l1465:
  3488     0547  0853               	movf	___fladd@grs,w
  3489     0548  397F               	andlw	127
  3490     0549  1903               	btfsc	3,2
  3491     054A  2D4C               	goto	u1661
  3492     054B  2D4D               	goto	u1660
  3493     054C                     u1661:
  3494     054C  2D50               	goto	l533
  3495     054D                     u1660:
  3496     054D                     l1467:
  3497     054D  01D1               	clrf	___fladd@aexp
  3498     054E  0AD1               	incf	___fladd@aexp,f
  3499     054F  2D55               	goto	l1471
  3500     0550                     l533:
  3501     0550  1C40               	btfss	___fladd@b,0
  3502     0551  2D53               	goto	u1671
  3503     0552  2D54               	goto	u1670
  3504     0553                     u1671:
  3505     0553  2D55               	goto	l1471
  3506     0554                     u1670:
  3507     0554  2D4D               	goto	l1467
  3508     0555                     l1471:
  3509     0555  0851               	movf	___fladd@aexp,w
  3510     0556  1903               	btfsc	3,2
  3511     0557  2D59               	goto	u1681
  3512     0558  2D5A               	goto	u1680
  3513     0559                     u1681:
  3514     0559  2D8E               	goto	l536
  3515     055A                     u1680:
  3516     055A                     l1473:
  3517     055A  3001               	movlw	1
  3518     055B  07C0               	addwf	___fladd@b,f
  3519     055C  3000               	movlw	0
  3520     055D  1803               	skipnc
  3521     055E  3001               	movlw	1
  3522     055F  07C1               	addwf	___fladd@b+1,f
  3523     0560  3000               	movlw	0
  3524     0561  1803               	skipnc
  3525     0562  3001               	movlw	1
  3526     0563  07C2               	addwf	___fladd@b+2,f
  3527     0564  3000               	movlw	0
  3528     0565  1803               	skipnc
  3529     0566  3001               	movlw	1
  3530     0567  07C3               	addwf	___fladd@b+3,f
  3531     0568                     l1475:
  3532     0568  1C43               	btfss	___fladd@b+3,0
  3533     0569  2D6B               	goto	u1691
  3534     056A  2D6C               	goto	u1690
  3535     056B                     u1691:
  3536     056B  2D8E               	goto	l536
  3537     056C                     u1690:
  3538     056C                     l1477:
  3539     056C  0840               	movf	___fladd@b,w
  3540     056D  00C8               	movwf	??___fladd
  3541     056E  0841               	movf	___fladd@b+1,w
  3542     056F  00C9               	movwf	??___fladd+1
  3543     0570  0842               	movf	___fladd@b+2,w
  3544     0571  00CA               	movwf	??___fladd+2
  3545     0572  0843               	movf	___fladd@b+3,w
  3546     0573  00CB               	movwf	??___fladd+3
  3547     0574  3001               	movlw	1
  3548     0575  00CC               	movwf	??___fladd+4
  3549     0576                     u1705:
  3550     0576  0D4B               	rlf	??___fladd+3,w
  3551     0577  0CCB               	rrf	??___fladd+3,f
  3552     0578  0CCA               	rrf	??___fladd+2,f
  3553     0579  0CC9               	rrf	??___fladd+1,f
  3554     057A  0CC8               	rrf	??___fladd,f
  3555     057B                     u1700:
  3556     057B  0BCC               	decfsz	??___fladd+4,f
  3557     057C  2D76               	goto	u1705
  3558     057D  084B               	movf	??___fladd+3,w
  3559     057E  00C3               	movwf	___fladd@b+3
  3560     057F  084A               	movf	??___fladd+2,w
  3561     0580  00C2               	movwf	___fladd@b+2
  3562     0581  0849               	movf	??___fladd+1,w
  3563     0582  00C1               	movwf	___fladd@b+1
  3564     0583  0848               	movf	??___fladd,w
  3565     0584  00C0               	movwf	___fladd@b
  3566     0585  0A52               	incf	___fladd@bexp,w
  3567     0586  1903               	btfsc	3,2
  3568     0587  2D89               	goto	u1711
  3569     0588  2D8A               	goto	u1710
  3570     0589                     u1711:
  3571     0589  2D8E               	goto	l536
  3572     058A                     u1710:
  3573     058A                     l1479:
  3574     058A  3001               	movlw	1
  3575     058B  00C8               	movwf	??___fladd
  3576     058C  0848               	movf	??___fladd,w
  3577     058D  07D2               	addwf	___fladd@bexp,f
  3578     058E                     l536:
  3579     058E  0A52               	incf	___fladd@bexp,w
  3580     058F  1903               	btfsc	3,2
  3581     0590  2D92               	goto	u1721
  3582     0591  2D93               	goto	u1720
  3583     0592                     u1721:
  3584     0592  2D98               	goto	l1483
  3585     0593                     u1720:
  3586     0593                     l1481:
  3587     0593  0852               	movf	___fladd@bexp,w
  3588     0594  1D03               	btfss	3,2
  3589     0595  2D97               	goto	u1731
  3590     0596  2D98               	goto	u1730
  3591     0597                     u1731:
  3592     0597  2DA6               	goto	l1489
  3593     0598                     u1730:
  3594     0598                     l1483:
  3595     0598  3000               	movlw	0
  3596     0599  00C3               	movwf	___fladd@b+3
  3597     059A  3000               	movlw	0
  3598     059B  00C2               	movwf	___fladd@b+2
  3599     059C  3000               	movlw	0
  3600     059D  00C1               	movwf	___fladd@b+1
  3601     059E  3000               	movlw	0
  3602     059F  00C0               	movwf	___fladd@b
  3603     05A0                     l1485:
  3604     05A0  0852               	movf	___fladd@bexp,w
  3605     05A1  1D03               	btfss	3,2
  3606     05A2  2DA4               	goto	u1741
  3607     05A3  2DA5               	goto	u1740
  3608     05A4                     u1741:
  3609     05A4  2DA6               	goto	l1489
  3610     05A5                     u1740:
  3611     05A5                     l1487:
  3612     05A5  01D0               	clrf	___fladd@signs
  3613     05A6                     l1489:
  3614     05A6  1C52               	btfss	___fladd@bexp,0
  3615     05A7  2DA9               	goto	u1751
  3616     05A8  2DAA               	goto	u1750
  3617     05A9                     u1751:
  3618     05A9  2DAC               	goto	l1493
  3619     05AA                     u1750:
  3620     05AA                     l1491:
  3621     05AA  17C2               	bsf	___fladd@b+2,7
  3622     05AB  2DB0               	goto	l544
  3623     05AC                     l1493:
  3624     05AC  307F               	movlw	127
  3625     05AD  00C8               	movwf	??___fladd
  3626     05AE  0848               	movf	??___fladd,w
  3627     05AF  05C2               	andwf	___fladd@b+2,f
  3628     05B0                     l544:
  3629     05B0  0852               	movf	___fladd@bexp,w
  3630     05B1  00C8               	movwf	??___fladd
  3631     05B2  1003               	clrc
  3632     05B3  0C48               	rrf	??___fladd,w
  3633     05B4  00C3               	movwf	___fladd@b+3
  3634     05B5                     l1495:
  3635     05B5  1FD0               	btfss	___fladd@signs,7
  3636     05B6  2DB8               	goto	u1761
  3637     05B7  2DB9               	goto	u1760
  3638     05B8                     u1761:
  3639     05B8  2DBA               	goto	l545
  3640     05B9                     u1760:
  3641     05B9                     l1497:
  3642     05B9  17C3               	bsf	___fladd@b+3,7
  3643     05BA                     l545:
  3644     05BA                     l515:
  3645     05BA  0008               	return
  3646     05BB                     __end_of___fladd:
  3647                           
  3648                           	psect	text10
  3649     07D2                     __ptext10:	
  3650 ;; *************** function _isr *****************
  3651 ;; Defined at:
  3652 ;;		line 70 in file "main.c"
  3653 ;; Parameters:    Size  Location     Type
  3654 ;;		None
  3655 ;; Auto vars:     Size  Location     Type
  3656 ;;		None
  3657 ;; Return value:  Size  Location     Type
  3658 ;;                  1    wreg      void 
  3659 ;; Registers used:
  3660 ;;		wreg, status,2, status,0
  3661 ;; Tracked objects:
  3662 ;;		On entry : 0/0
  3663 ;;		On exit  : 0/0
  3664 ;;		Unchanged: 0/0
  3665 ;; Data sizes:     COMMON   BANK0   BANK1   BANK3   BANK2
  3666 ;;      Params:         0       0       0       0       0
  3667 ;;      Locals:         0       0       0       0       0
  3668 ;;      Temps:          3       0       0       0       0
  3669 ;;      Totals:         3       0       0       0       0
  3670 ;;Total ram usage:        3 bytes
  3671 ;; Hardware stack levels used: 1
  3672 ;; This function calls:
  3673 ;;		Nothing
  3674 ;; This function is called by:
  3675 ;;		Interrupt level 1
  3676 ;; This function uses a non-reentrant model
  3677 ;;
  3678                           
  3679     07D2                     _isr:	
  3680                           ;psect for function _isr
  3681                           
  3682     07D2                     i1l1741:
  3683                           
  3684                           ;main.c: 74:     if (PIR1bits.ADIF)
  3685     07D2  1283               	bcf	3,5	;RP0=0, select bank0
  3686     07D3  1303               	bcf	3,6	;RP1=0, select bank0
  3687     07D4  1F0C               	btfss	12,6	;volatile
  3688     07D5  2FD7               	goto	u229_21
  3689     07D6  2FD8               	goto	u229_20
  3690     07D7                     u229_21:
  3691     07D7  2FDA               	goto	i1l87
  3692     07D8                     u229_20:
  3693     07D8                     i1l1743:
  3694                           
  3695                           ;main.c: 75:     {;main.c: 76:         PORTBbits.RB7 = 1;
  3696     07D8  1786               	bsf	6,7	;volatile
  3697                           
  3698                           ;main.c: 77:         PIR1bits.ADIF = 0;
  3699     07D9  130C               	bcf	12,6	;volatile
  3700     07DA                     i1l87:	
  3701                           ;main.c: 78:     }
  3702                           
  3703                           
  3704                           ;main.c: 82:     if (INTCONbits.T0IF)
  3705     07DA  1D0B               	btfss	11,2	;volatile
  3706     07DB  2FDD               	goto	u230_21
  3707     07DC  2FDE               	goto	u230_20
  3708     07DD                     u230_21:
  3709     07DD  2FF9               	goto	i1l91
  3710     07DE                     u230_20:
  3711     07DE                     i1l1745:
  3712                           
  3713                           ;main.c: 83:     {;main.c: 84:         CONT_TMR0++;
  3714     07DE  3001               	movlw	1
  3715     07DF  00F0               	movwf	??_isr
  3716     07E0  0870               	movf	??_isr,w
  3717     07E1  07EA               	addwf	_CONT_TMR0,f
  3718     07E2                     i1l1747:
  3719                           
  3720                           ;main.c: 86:         if (CONT_TMR0 <= V3_ADRESH)
  3721     07E2  0865               	movf	_V3_ADRESH+1,w
  3722     07E3  3A80               	xorlw	128
  3723     07E4  00F0               	movwf	??_isr
  3724     07E5  3080               	movlw	128
  3725     07E6  0270               	subwf	??_isr,w
  3726     07E7  1D03               	skipz
  3727     07E8  2FEB               	goto	u231_25
  3728     07E9  086A               	movf	_CONT_TMR0,w
  3729     07EA  0264               	subwf	_V3_ADRESH,w
  3730     07EB                     u231_25:
  3731     07EB  1C03               	skipc
  3732     07EC  2FEE               	goto	u231_21
  3733     07ED  2FEF               	goto	u231_20
  3734     07EE                     u231_21:
  3735     07EE  2FF3               	goto	i1l89
  3736     07EF                     u231_20:
  3737     07EF                     i1l1749:
  3738                           
  3739                           ;main.c: 87:         {;main.c: 88:             PORTAbits.RA7 = 1;
  3740     07EF  1283               	bcf	3,5	;RP0=0, select bank0
  3741     07F0  1303               	bcf	3,6	;RP1=0, select bank0
  3742     07F1  1785               	bsf	5,7	;volatile
  3743                           
  3744                           ;main.c: 89:         }
  3745     07F2  2FF6               	goto	i1l1751
  3746     07F3                     i1l89:	
  3747                           ;main.c: 90:         else
  3748                           
  3749                           
  3750                           ;main.c: 91:         {;main.c: 92:             PORTAbits.RA7 = 0;
  3751     07F3  1283               	bcf	3,5	;RP0=0, select bank0
  3752     07F4  1303               	bcf	3,6	;RP1=0, select bank0
  3753     07F5  1385               	bcf	5,7	;volatile
  3754     07F6                     i1l1751:
  3755                           
  3756                           ;main.c: 95:         TMR0 = 240;
  3757     07F6  30F0               	movlw	240
  3758     07F7  0081               	movwf	1	;volatile
  3759     07F8                     i1l1753:
  3760                           
  3761                           ;main.c: 96:         INTCONbits.T0IF = 0;
  3762     07F8  110B               	bcf	11,2	;volatile
  3763     07F9                     i1l91:
  3764     07F9  0872               	movf	??_isr+2,w
  3765     07FA  008A               	movwf	10
  3766     07FB  0E71               	swapf	??_isr+1,w
  3767     07FC  0083               	movwf	3
  3768     07FD  0EFE               	swapf	btemp,f
  3769     07FE  0E7E               	swapf	btemp,w
  3770     07FF  0009               	retfie
  3771     0800                     __end_of_isr:
  3772     007E                     btemp	set	126	;btemp
  3773     007E                     wtemp0	set	126
  3774                           
  3775                           	psect	intentry
  3776     0004                     __pintentry:	
  3777                           ;incstack = 0
  3778                           ; Regs used in _isr: [wreg+status,2+status,0]
  3779                           
  3780     0004                     interrupt_function:
  3781     007E                     saved_w	set	btemp
  3782     0004  00FE               	movwf	btemp
  3783     0005  0E03               	swapf	3,w
  3784     0006  00F1               	movwf	??_isr+1
  3785     0007  080A               	movf	10,w
  3786     0008  00F2               	movwf	??_isr+2
  3787     0009  120A  118A  2FD2   	ljmp	_isr
  3788                           
  3789                           	psect	idloc
  3790                           
  3791                           ;Config register IDLOC0 @ 0x2000
  3792                           ;	unspecified, using default values
  3793     2000                     	org	8192
  3794     2000  3FFF               	dw	16383
  3795                           
  3796                           ;Config register IDLOC1 @ 0x2001
  3797                           ;	unspecified, using default values
  3798     2001                     	org	8193
  3799     2001  3FFF               	dw	16383
  3800                           
  3801                           ;Config register IDLOC2 @ 0x2002
  3802                           ;	unspecified, using default values
  3803     2002                     	org	8194
  3804     2002  3FFF               	dw	16383
  3805                           
  3806                           ;Config register IDLOC3 @ 0x2003
  3807                           ;	unspecified, using default values
  3808     2003                     	org	8195
  3809     2003  3FFF               	dw	16383
  3810                           
  3811                           	psect	config
  3812                           
  3813                           ;Config register CONFIG1 @ 0x2007
  3814                           ;	Oscillator Selection bits
  3815                           ;	FOSC = INTRC_NOCLKOUT, INTOSCIO oscillator: I/O function on RA6/OSC2/CLKOUT pin, I/O f
      +                          unction on RA7/OSC1/CLKIN
  3816                           ;	Watchdog Timer Enable bit
  3817                           ;	WDTE = OFF, WDT disabled and can be enabled by SWDTEN bit of the WDTCON register
  3818                           ;	Power-up Timer Enable bit
  3819                           ;	PWRTE = OFF, PWRT disabled
  3820                           ;	RE3/MCLR pin function select bit
  3821                           ;	MCLRE = OFF, RE3/MCLR pin function is digital input, MCLR internally tied to VDD
  3822                           ;	Code Protection bit
  3823                           ;	CP = OFF, Program memory code protection is disabled
  3824                           ;	Data Code Protection bit
  3825                           ;	CPD = OFF, Data memory code protection is disabled
  3826                           ;	Brown Out Reset Selection bits
  3827                           ;	BOREN = OFF, BOR disabled
  3828                           ;	Internal External Switchover bit
  3829                           ;	IESO = OFF, Internal/External Switchover mode is disabled
  3830                           ;	Fail-Safe Clock Monitor Enabled bit
  3831                           ;	FCMEN = OFF, Fail-Safe Clock Monitor is disabled
  3832                           ;	Low Voltage Programming Enable bit
  3833                           ;	LVP = OFF, RB3 pin has digital I/O, HV on MCLR must be used for programming
  3834                           ;	In-Circuit Debugger Mode bit
  3835                           ;	DEBUG = 0x1, unprogramme  3836     2007                     	org	8199
  3837     2007  20D4               	dw	8404
  3838                           
  3839                           ;Config register CONFIG2 @ 0x2008
  3840                           ;	Brown-out Reset Selection bit
  3841                           ;	BOR4V = BOR40V, Brown-out Reset set to 4.0V
  3842                           ;	Flash Program Memory Self Write Enable bits
  3843                           ;	WRT = OFF, Write protection off
  3844     2008                     	org	8200
  3845     2008  3FFF               	dw	16383

Data Sizes:
    Strings     0
    Constant    0
    Data        0
    BSS         9
    Persistent  0
    Stack       0

Auto Spaces:
    Space          Size  Autos    Used
    COMMON           14     11      11
    BANK0            80     66      75
    BANK1            80      0       0
    BANK3            96      0       0
    BANK2            96      0       0

Pointer List with Targets:

    None.

Critical Paths under _main in COMMON

    _convertir->___xxtofl
    ___fltol->___xxtofl
    ___flmul->___xxtofl
    ___fladd->___xxtofl

Critical Paths under _isr in COMMON

    None.

Critical Paths under _main in BANK0

    _main->_convertir
    _convertir->___fltol
    ___fltol->___fladd
    ___flmul->___xxtofl
    ___fladd->___flmul

Critical Paths under _isr in BANK0

    None.

Critical Paths under _main in BANK1

    None.

Critical Paths under _isr in BANK1

    None.

Critical Paths under _main in BANK3

    None.

Critical Paths under _isr in BANK3

    None.

Critical Paths under _main in BANK2

    None.

Critical Paths under _isr in BANK2

    None.

Call Graph Tables:

 ---------------------------------------------------------------------------------
 (Depth) Function   	        Calls       Base Space   Used Autos Params    Refs
 ---------------------------------------------------------------------------------
 (0) _main                                                 2     2      0    5556
                                             64 BANK0      2     2      0
                          _convertir
                              _setup
                           _setupADC
                           _setupPWM
 ---------------------------------------------------------------------------------
 (1) _setupPWM                                             0     0      0       0
 ---------------------------------------------------------------------------------
 (1) _setupADC                                             1     1      0       0
                                              3 COMMON     1     1      0
 ---------------------------------------------------------------------------------
 (1) _setup                                                0     0      0       0
 ---------------------------------------------------------------------------------
 (1) _convertir                                            2     0      2    5556
                                             62 BANK0      2     0      2
                            ___fladd
                            ___flmul
                            ___fltol
                           ___xxtofl
 ---------------------------------------------------------------------------------
 (2) ___xxtofl                                            14    10      4     398
                                              3 COMMON     8     4      4
                                              0 BANK0      6     6      0
 ---------------------------------------------------------------------------------
 (2) ___fltol                                             10     6      4     305
                                             52 BANK0     10     6      4
                            ___fladd (ARG)
                            ___flmul (ARG)
                           ___xxtofl (ARG)
 ---------------------------------------------------------------------------------
 (2) ___flmul                                             26    18      8    2417
                                              6 BANK0     26    18      8
                          __Umul8_16
                           ___xxtofl (ARG)
 ---------------------------------------------------------------------------------
 (3) __Umul8_16                                            9     7      2     799
                                              3 COMMON     4     2      2
                                              0 BANK0      5     5      0
 ---------------------------------------------------------------------------------
 (2) ___fladd                                             20    12      8    2262
                                             32 BANK0     20    12      8
                            ___flmul (ARG)
                           ___xxtofl (ARG)
 ---------------------------------------------------------------------------------
 Estimated maximum stack depth 3
 ---------------------------------------------------------------------------------
 (Depth) Function   	        Calls       Base Space   Used Autos Params    Refs
 ---------------------------------------------------------------------------------
 (4) _isr                                                  3     3      0       0
                                              0 COMMON     3     3      0
 ---------------------------------------------------------------------------------
 Estimated maximum stack depth 4
 ---------------------------------------------------------------------------------

 Call Graph Graphs:

 _main (ROOT)
   _convertir
     ___fladd
       ___flmul (ARG)
         __Umul8_16
         ___xxtofl (ARG)
       ___xxtofl (ARG)
     ___flmul
     ___fltol
       ___fladd (ARG)
       ___flmul (ARG)
       ___xxtofl (ARG)
     ___xxtofl
   _setup
   _setupADC
   _setupPWM

 _isr (ROOT)

 Address spaces:
Name               Size   Autos  Total    Cost      Usage
BITCOMMON            E      0       0       0        0.0%
EEDATA             100      0       0       0        0.0%
NULL                 0      0       0       0        0.0%
CODE                 0      0       0       0        0.0%
COMMON               E      B       B       1       78.6%
BITSFR0              0      0       0       1        0.0%
SFR0                 0      0       0       1        0.0%
BITSFR1              0      0       0       2        0.0%
SFR1                 0      0       0       2        0.0%
STACK                0      0       0       2        0.0%
ABS                  0      0      56       3        0.0%
BITBANK0            50      0       0       4        0.0%
BITSFR3              0      0       0       4        0.0%
SFR3                 0      0       0       4        0.0%
BANK0               50     42      4B       5       93.8%
BITSFR2              0      0       0       5        0.0%
SFR2                 0      0       0       5        0.0%
BITBANK1            50      0       0       6        0.0%
BANK1               50      0       0       7        0.0%
BITBANK3            60      0       0       8        0.0%
BANK3               60      0       0       9        0.0%
BITBANK2            60      0       0      10        0.0%
BANK2               60      0       0      11        0.0%
DATA                 0      0      56      12        0.0%


Microchip Technology PIC Macro Assembler V2.40 build 20220703182018 
Symbol Table                                                                                   Mon Oct 24 19:54:19 2022

                     l97 0696      __Umul8_16@word_mpld 0022                      l100 06C3  
                    l111 0FFF                      l103 06F0                      l120 0F7D  
                    l114 0FD2                      l123 07D1                      l117 0F75  
                    l119 0F79                      l402 0767                      l405 077C  
                    l502 03BE                      l506 0441                      l610 0356  
                    l523 050A                      l515 05BA                      l508 041A  
                    l604 02D2                      l533 0550                      l527 052E  
                    l544 05B0                      l536 058E                      l545 05BA  
                    l617 0F94                      l642 05DF                      l619 0FA6  
                    l395 077C                      l644 0674                      l655 063E  
                    l656 064A                      l648 0622                      l598 0362  
                    _PR2 0092                      _isr 07D2             ___flmul@aexp 0038  
           ___flmul@bexp 0039             ___flmul@sign 0033             ___flmul@temp 003E  
           ___flmul@prod 003A             ___fltol@exp1 005D                     l1301 076C  
                   l1311 0370                     l1303 0771                     l1401 0439  
                   l1321 0384                     l1313 0371                     l1305 0363  
                   l1411 046A                     l1403 0445                     l1331 0398  
                   l1315 0376                     l1323 0386                     l1307 0368  
                   l1421 047F                     l1413 046E                     l1405 044A  
                   l1341 03AB                     l1333 039C                     l1325 038E  
                   l1317 037B                     l1309 036C                     l1261 0F8E  
                   l1501 0023                     l1431 04E2                     l1423 0480  
                   l1415 0472                     l1351 03C8                     l1343 03B3  
                   l1335 03A0                     l1327 0391                     l1319 0383  
                   l1263 0F9D                     l1255 0F81                     l1511 0036  
                   l1503 0027                     l1271 0710                     l1441 0517  
                   l1433 04E8                     l1425 0489                     l1417 0479  
                   l1409 0453                     l1361 03D4                     l1353 03CC  
                   l1345 03B4                     l1337 03A1                     l1329 0397  
                   l1265 0FA2                     l1257 0F83                     l1601 02BB  
                   l1521 0051                     l1513 003E                     l1505 002B  
                   l1281 0735                     l1451 0532                     l1435 04ED  
                   l1419 047B                     l1427 048E                     l1371 03DE  
                   l1363 03D6                     l1355 03CE                     l1339 03A6  
                   l1347 03B6                     l1259 0F8A                     l1611 02EA  
                   l1603 02CF                     l1531 0068                     l1523 0055  
                   l1515 0040                     l1507 002C                     l1291 0743  
                   l1283 0737                     l1275 0719                     l1453 0535  
                   l1445 0520                     l1429 04A4                     l1437 04FC  
                   l1461 0542                     l1381 03E8                     l1373 03E0  
                   l1365 03D8                     l1357 03D0                     l1349 03C4  
                   l1621 0325                     l1613 02EE                     l1533 006A  
                   l1525 0056                     l1517 0048                     l1509 0031  
                   l1285 073B                     l1293 0755                     l1277 072C  
                   l1269 0705                     l1701 0FF1                     l1471 0555  
                   l1463 0543                     l1455 0537                     l1447 0529  
                   l1439 0512                     l1391 0425                     l1375 03E2  
                   l1367 03DA                     l1359 03D2                     l1383 03EA  
                   l1631 0350                     l1623 0334                     l1615 0307  
                   l1607 02D7                     l1551 00D7                     l1543 0085  
                   l1535 0072                     l1527 005B                     l1519 004D  
                   l1279 072D                     l1711 0FFE                     l1703 0FF4  
                   l1481 0593                     l1473 055A                     l1465 0547  
                   l1457 053C                     l1449 052D                     l1393 0427  
                   l1385 03EB                     l1377 03E4                     l1369 03DC  
                   l1633 0351                     l1625 033E                     l1609 02DC  
                   l1617 030D                     l1561 0150                     l1553 0101  
                   l1545 0093                     l1537 0077                     l1529 0060  
                   l1641 05C3                     l1705 0FF5                     l1713 0FA7  
                   l1721 0F5F                     l1491 05AA                     l1483 0598  
                   l1475 0568                     l1467 054D                     l1459 053E  
                   l1395 042B                     l1387 0402                     l1379 03E6  
                   l1635 035A                     l1627 0340                     l1619 031A  
                   l1571 01CC                     l1563 016D                     l1555 011D  
                   l1547 00A0                     l1539 007C                     l1299 075C  
                   l1651 05F0                     l1643 05C7                     l1707 0FF9  
                   l1715 0FCD                     l1731 0F6C                     l1723 0F63  
                   l1493 05AC                     l1485 05A0                     l1477 056C  
                   l1397 042C                     l1389 041E                     l1629 034C  
                   l1581 027E                     l1573 01F7                     l1565 017B  
                   l1557 0139                     l1549 00BB                     l1661 0619  
                   l1653 05F3                     l1645 05D7                     l1709 0FFD  
                   l1733 0F71                     l1725 0F67                     l1717 0F59  
                   l1495 05B5                     l1487 05A5                     l1479 058A  
                   l1399 0435                     l1591 02A3                     l1583 0287  
                   l1575 0205                     l1567 0198                     l1559 0142  
                   l1671 064C                     l1663 0629                     l1655 0600  
                   l1647 05E7                     l1639 05BE                     l1735 0F72  
                   l1727 0F69                     l1719 0F5D                     l1497 05B9  
                   l1489 05A6                     l1593 02AC                     l1585 0295  
                   l1577 0230                     l1569 01AF                     l1673 0662  
                   l1665 0634                     l1657 0607                     l1737 0F74  
                   l1729 0F6B                     l1761 068D                     l1587 029E  
                   l1595 02B2                     l1579 0256                     l1499 001E  
                   l1675 0667                     l1667 0638                     l1659 060B  
                   l1739 077D                     l1691 0FE5                     l1683 0FD3  
                   l1771 06AE                     l1763 0693                     l1755 0675  
                   l1597 02B6                     l1589 02A2                     l1677 066B  
                   l1669 0642                     l1693 0FE6                     l1685 0FD6  
                   l1781 06CE                     l1773 06B4                     l1765 069A  
                   l1757 0684                     l1599 02B7                     l1679 066C  
                   l1695 0FEC                     l1687 0FDD                     l1791 06ED  
                   l1783 06D7                     l1775 06BA                     l1767 06A1  
                   l1759 0687                     l1697 0FED                     l1689 0FE4  
                   l1793 06F4                     l1785 06DB                     l1777 06C0  
                   l1769 06AA                     l1699 0FEE                     l1787 06E1  
                   l1779 06C7                     l1789 06E7                     ?_isr 0070  
                   u1200 0FA2                     u1201 0FA1                     u1210 0710  
                   u1211 070F                     u2100 02FD                     u2020 02A2  
                   u1300 0771                     u1220 0727                     u2021 02A1  
                   u2005 0280                     u1301 0770                     u1310 0370  
                   u2110 031A                     u1230 073B                     u1311 036F  
                   u2111 0319                     u2015 0297                     u1231 073A  
                   u1400 0402                     u1320 0376                     u2120 0334  
                   u2040 02B6                     u1240 0742                     u2200 0628  
                   u1401 0401                     u1321 0375                     u2121 0333  
                   u2105 02F8                     u2041 02B5                     u1241 0741  
                   u1225 0722                     u2201 0627                     u1410 040D  
                   u1330 037B                     u2130 0350                     u2050 02BB  
                   u1411 040B                     u1331 037A                     u2131 034F  
                   u2115 0316                     u2051 02BA                     u2035 02A5  
                   u1500 046E                     u1420 040E                     u1340 0397  
                   u1180 0F8E                     u2060 02CF                     u1260 0754  
                   u2220 0638                     u2140 05C3                     u1501 046D  
                   u1405 03FE                     u1341 0396                     u1181 0F8D  
                   u2125 0330                     u2061 02CE                     u1261 0753  
                   u2221 0637                     u2141 05C2                     u1510 0472  
                   u1430 041E                     u1350 03A0                     u2070 02D6  
                   u1270 075B                     u2230 063E                     u2150 05C7  
                   u1511 0471                     u1431 041D                     u1351 039F  
                   u2071 02D5                     u1271 075A                     u1255 0744  
                   u2231 063D                     u2215 062D                     u2151 05C6  
                   u1520 047F                     u1440 042B                     u1360 03A6  
                   u2080 02DC                     u2240 0642                     u2160 05E7  
                   u2320 069A                     u1521 047E                     u1441 042A  
                   u1361 03A5                     u2081 02DB                     u2241 0641  
                   u2161 05E6                     u2321 0699                     u1610 052D  
                   u1370 03AB                     u2090 02EE                     u1290 076C  
                   u2250 0657                     u2330 06C7                     u1611 052C  
                   u1371 03AA                     u1195 0F95                     u2091 02ED  
                   u1291 076B                     u2331 06C6                     u1700 057B  
                   u1620 0532                     u1540 04A4                     u1460 0441  
                   u1380 03C4                     u2260 0667                     u2180 0606  
                   u2340 06F4                     u1621 0531                     u1605 0522  
                   u1541 04A3                     u1461 0440                     u1381 03C3  
                   u1285 075E                     u2261 0666                     u2181 0605  
                   u2341 06F3                     u1710 058A                     u1630 053C  
                   u1470 0445                     u1390 03C8                     u2270 066B  
                   u1711 0589                     u1631 053B                     u1551 04BB  
                   u1543 04A0                     u1535 0482                     u1471 0444  
                   u1455 042E                     u1391 03C7                     u2271 066A  
                   u2255 0652                     u2175 05F8                     u2407 06FF  
                   u1720 0593                     u1640 0542                     u1560 04CF  
                   u1552 04BC                     u1480 044A                     u1800 0055  
                   u2280 0F79                     u1721 0592                     u1705 0576  
                   u1641 0541                     u1561 04D0                     u1553 04C1  
                   u1481 0449                     u1801 0054                     u2417 0FCF  
                   u2281 0F78                     u1730 0598                     u1650 0547  
                   u1570 04ED                     u1562 04D5                     u1554 04C2  
                   u1810 005B                     u1731 0597                     u1651 0546  
                   u1571 04EC                     u1563 04D6                     u1555 04C7  
                   u1491 045C                     u1811 005A                     u2195 061A  
                   u1740 05A5                     u1660 054D                     u1580 0512  
                   u1556 04C8                     u1492 0463                     u1820 0060  
                   u1741 05A4                     u1661 054C                     u1581 0511  
                   u1493 046A                     u1901 015F                     u1821 005F  
                   u2357 0691                     u1750 05AA                     u1670 0554  
                   u1590 0517                     u1902 0166                     u1830 0077  
                   u1751 05A9                     u1671 0553                     u1591 0516  
                   u1911 018A                     u1903 016D                     u1831 0076  
                   u2367 06B2                     u1760 05B9                     u1680 055A  
                   u1912 0191                     u1840 007C                     u1761 05B8  
                   u1681 0559                     u1913 0198                     u1841 007B  
                   u2377 06BE                     u1690 056C                     u1770 002B  
                   u1691 056B                     u1931 01BE                     u1851 00C9  
                   u1771 002A                     u2387 06DF                     u1932 01C5  
                   u1852 00D0                     u1780 0031                     u1941 01E9  
                   u1933 01CC                     u1925 019A                     u1861 00E5  
                   u1853 00D7                     u1781 0030                     u2397 06EB  
                   u1942 01F0                     u1862 00EC                     u1790 0036  
                   u1951 0214                     u1943 01F7                     u1871 010F  
                   u1863 00F3                     u1791 0035                     u1960 023C  
                   u1952 021B                     u1872 0116                     u1953 0222  
                   u1881 012B                     u1873 011D                     u1882 0132  
                   u1971 0248                     u1883 0139                     u1980 0264  
                   u1972 024F                     u1973 0256                     u1965 0237  
                   u1991 0270                     u1895 013B                     u1992 0277  
                   u1993 027E                     u1985 025F                     i1l91 07F9  
                   i1l87 07DA                     i1l89 07F3                     _TMR0 0001  
                   _main 0675                     btemp 007E                     start 000C  
                  ??_isr 0070            ___fltol@sign1 005C          __end_of___fladd 05BB  
                  ?_main 0070          __end_of___flmul 0363          __end_of___fltol 077D  
                  _SERVO 0062                    _PORTB 0006                    _PORTC 0007  
                  _PORTD 0008                    _PORTE 0009                    _TRISB 0086  
                  _TRISC 0087                    _TRISD 0088                    _TRISE 0089  
                  _setup 0FD3                    pclath 000A                    status 0003  
                  wtemp0 007E          __initialization 000F             __end_of_main 0705  
                 ??_main 0060                   _ADRESH 001E                   _CCPR1L 0015  
                 _CCPR2L 001B                   ?_setup 0070                   _ANSELH 0189  
                 i1l1741 07D2                   i1l1751 07F6                   i1l1743 07D8  
                 i1l1753 07F8                   i1l1745 07DE                   i1l1747 07E2  
                 i1l1749 07EF                   u230_20 07DE                   u230_21 07DD  
                 u231_20 07EF                   u231_21 07EE                   u231_25 07EB  
                 u229_20 07D8                   u229_21 07D7                   _TMR2IF 0061  
                 _TMR2ON 0092         __end_of___xxtofl 0675                ??___fladd 0048  
              ??___flmul 002E                ??___fltol 0058         __end_of_setupADC 0FD3  
       __end_of_setupPWM 0F7E                   saved_w 007E             ___xxtofl@arg 0022  
           ___xxtofl@exp 0021             ___xxtofl@val 0073  __end_of__initialization 001A  
             ___fltol@f1 0054           __pcstackCOMMON 0070            __end_of_setup 1000  
         _OPTION_REGbits 0081                  ??_setup 0073               __pbssBANK0 0062  
      __end_of__Umul8_16 0FA7               __pmaintext 0675               __pintentry 0004  
              ?___xxtofl 0073                ?_setupADC 0070                ?_setupPWM 0070  
                ___fladd 0363                  ___flmul 001E                  ___fltol 0705  
      __end_of_convertir 07D2                _ANSELbits 0188                  __ptext1 0F59  
                __ptext2 0FA7                  __ptext3 0FD3                  __ptext4 077D  
                __ptext5 05BB                  __ptext6 0705                  __ptext7 001E  
                __ptext8 0F7E                  __ptext9 0363                _T2CONbits 0012  
             ??___xxtofl 0077                _CONT_TMR0 006A     end_of_initialization 001A  
              _V1_ADRESH 0068                _V2_ADRESH 0066                _V3_ADRESH 0064  
             ??_setupADC 0073               ??_setupPWM 0073                _PORTAbits 0005  
              _PORTBbits 0006              ___fladd@grs 0053            ___xxtofl@sign 0020  
              _TRISAbits 0085                _TRISCbits 0087              ___flmul@grs 0034  
            _CCP1CONbits 0017              _CCP2CONbits 001D      start_initialization 000F  
            __end_of_isr 0800                __Umul8_16 0F7E                ___fladd@a 0044  
              ___fladd@b 0040                ___flmul@a 002A                ___flmul@b 0026  
              ___latbits 0002            __pcstackBANK0 0020                 ?___fladd 0040  
               ?___flmul 0026                 ?___fltol 0054               ?__Umul8_16 0073  
              _convertir 077D        interrupt_function 0004                 _PIE1bits 008C  
               _PIR1bits 000C               _ADCON0bits 001F               _ADCON1bits 009F  
             ?_convertir 005E              ??__Umul8_16 0075                 ___xxtofl 05BB  
               __ptext10 07D2                 _setupADC 0FA7                 _setupPWM 0F59  
            ??_convertir 007B               _INTCONbits 000B                 intlevel1 0000  
             _OSCCONbits 008F   __Umul8_16@multiplicand 0073            ___fladd@signs 0050  
           ___fladd@aexp 0051             ___fladd@bexp 0052     __Umul8_16@multiplier 0024  
      convertir@V_ADRESH 005E        __Umul8_16@product 0020  
